ccopy_reg
_reconstructor
p0
(cnetworkx.classes.graph
Graph
p1
c__builtin__
object
p2
Ntp3
Rp4
(dp5
S'node'
p6
(dp7
S'msn.com'
p8
(dp9
S'pageviews'
p10
F4.23
sS'ilist'
p11
(lp12
I86
aI94
aI113
aI111
asS'alist'
p13
(lp14
I88
aI96
aI98
aI115
aI108
aI110
asS'name'
p15
g8
sS'reach'
p16
F4.411
ssS'nicovideo.jp'
p17
(dp18
g10
F17.07
sg11
(lp19
I79
aI94
aI125
aI111
asg13
(lp20
I122
aI80
aI111
aI107
aI87
aI98
asg15
g17
sg16
F0.8203
ssS'slickdeals.net'
p21
(dp22
g10
F3.97
sg11
(lp23
I31
aI73
aI182
aI159
asg13
(lp24
I98
aI98
aI102
aI113
aI77
aI91
asg15
g21
sg16
F0.3033
ssS'wikipedia.org'
p25
(dp26
g10
F3.65
sg11
(lp27
I118
aI112
aI81
aI87
asg13
(lp28
I98
aI98
aI102
aI98
aI103
aI98
asg15
g25
sg16
F9.593
ssS'youtube.com'
p29
(dp30
g10
F13.14
sg11
(lp31
I115
aI108
aI86
aI89
asg13
(lp32
I92
aI97
aI107
aI102
aI103
aI102
asg15
g29
sg16
F35.863
ssS'ebay.com'
p33
(dp34
g10
F12.57
sg11
(lp35
I84
aI104
aI107
aI109
asg13
(lp36
I74
aI90
aI106
aI118
aI122
aI129
asg15
g33
sg16
F2.177
ssS'live.com'
p37
(dp38
g10
F3.8
sg11
(lp39
I107
aI107
aI91
aI94
asg13
(lp40
I95
aI103
aI103
aI98
aI94
aI94
asg15
g37
sg16
F6.605
ssS'taboola.com'
p41
(dp42
g10
F1.51
sg11
(lp43
I66
aI94
aI121
aI128
asg13
(lp44
I69
aI79
aI105
aI126
aI150
aI175
asg15
g41
sg16
F0.6075
ssS'rakuten.co.jp'
p45
(dp46
g10
F11.7
sg11
(lp47
I57
aI97
aI127
aI146
asg13
(lp48
I61
aI84
aI134
aI138
aI117
aI95
asg15
g45
sg16
F0.9809
ssS'stackoverflow.com'
p49
(dp50
g10
F4.36
sg11
(lp51
I111
aI102
aI95
aI91
asg13
(lp52
I108
aI123
aI96
aI80
aI63
aI64
asg15
g49
sg16
F1.635
ssS'pex.jp'
p53
(dp54
g10
F11.16
sg11
(lp55
I0
aI0
aI139
aI198
asg13
(lp56
I0
aI62
aI198
aI0
aI0
aI0
asg15
g53
sg16
F0.037
ssS'kingsoft.jp'
p57
(dp58
g10
F2.25
sg11
(lp59
I51
aI141
aI117
aI104
asg13
(lp60
I43
aI64
aI150
aI164
aI0
aI0
asg15
g57
sg16
F0.0181
ssS'flipkart.com'
p61
(dp62
g10
F8.49
sg11
(lp63
I198
aI96
aI41
aI43
asg13
(lp64
I154
aI139
aI61
aI37
aI37
aI47
asg15
g61
sg16
F0.6643
ssS'linkedin.com'
p65
(dp66
g10
F6.26
sg11
(lp67
I83
aI98
aI103
aI119
asg13
(lp68
I73
aI95
aI109
aI116
aI112
aI108
asg15
g65
sg16
F3.599
ssS'biglobe.ne.jp'
p69
(dp70
g10
F3.37
sg11
(lp71
I58
aI164
aI139
aI76
asg13
(lp72
I34
aI49
aI198
aI151
aI118
aI0
asg15
g69
sg16
F0.1524
ssS'thehindu.com'
p73
(dp74
g13
(lp75
I116
aI128
aI75
aI63
aI93
aI75
asg10
F2.36
sg11
(lp76
I181
aI106
aI58
aI58
asg15
g73
sg16
F0.128
ssS'bing.com'
p77
(dp78
g10
F3.15
sg11
(lp79
I49
aI79
aI161
aI140
asg13
(lp80
I98
aI90
aI102
aI116
aI98
aI114
asg15
g77
sg16
F4.722
ssS'gamefactory.jp'
p81
(dp82
g10
F6.07
sg11
(lp83
I0
aI0
aI0
aI0
asg13
(lp84
I0
aI0
aI0
aI0
aI0
aI0
asg15
g81
sg16
F0.0494
ssS'etsy.com'
p85
(dp86
g10
F9.06
sg11
(lp87
I60
aI93
aI132
aI127
asg13
(lp88
I86
aI98
aI106
aI108
aI95
aI98
asg15
g85
sg16
F0.4569
ssS'yahoo.co.jp'
p89
(dp90
g10
F16.75
sg11
(lp91
I59
aI106
aI118
aI142
asg13
(lp92
I59
aI71
aI162
aI141
aI122
aI74
asg15
g89
sg16
F3.078
ssS'rakuten-card.co.jp'
p93
(dp94
g10
F4.79
sg11
(lp95
I44
aI71
aI174
aI146
asg13
(lp96
I107
aI111
aI97
aI98
aI65
aI45
asg15
g93
sg16
F0.0826
ssS'rakuten.ne.jp'
p97
(dp98
g10
F1.78
sg11
(lp99
I43
aI80
aI128
aI198
asg13
(lp100
I45
aI67
aI151
aI181
aI198
aI58
asg15
g97
sg16
F0.1216
ssS'ecnavi.jp'
p101
(dp102
g10
F15.42
sg11
(lp103
I21
aI88
aI162
aI182
asg13
(lp104
I81
aI75
aI152
aI110
aI76
aI123
asg15
g101
sg16
F0.0659
ssS'twitter.com'
p105
(dp106
g10
F5.25
sg11
(lp107
I89
aI98
aI106
aI109
asg13
(lp108
I91
aI98
aI107
aI106
aI95
aI93
asg15
g105
sg16
F6.573
ssS'google.fr'
p109
(dp110
g10
F9.61
sg11
(lp111
I126
aI151
aI74
aI57
asg13
(lp112
I90
aI105
aI119
aI93
aI65
aI97
asg15
g109
sg16
F1.8606
ssS'usps.com'
p113
(dp114
g10
F3.1
sg11
(lp115
I43
aI87
aI150
aI143
asg13
(lp116
I77
aI87
aI98
aI126
aI130
aI125
asg15
g113
sg16
F0.3484
ssS'kakaku.com'
p117
(dp118
g10
F7.02
sg11
(lp119
I42
aI95
aI171
aI142
asg13
(lp120
I50
aI73
aI157
aI149
aI138
aI98
asg15
g117
sg16
F0.41
ssS'facebook.com'
p121
(dp122
g10
F10.89
sg11
(lp123
I91
aI98
aI108
aI105
asg13
(lp124
I95
aI96
aI107
aI104
aI98
aI98
asg15
g121
sg16
F35.296
ssS'omni7.jp'
p125
(dp126
g10
F4.06
sg11
(lp127
I0
aI0
aI0
aI0
asg13
(lp128
I0
aI0
aI0
aI0
aI0
aI0
asg15
g125
sg16
F0.0404
ssS'dietnavi.com'
p129
(dp130
g10
F12.55
sg11
(lp131
I29
aI60
aI198
aI144
asg13
(lp132
I91
aI86
aI134
aI103
aI68
aI111
asg15
g129
sg16
F0.0177
ssS'homepage-web.com'
p133
(dp134
g10
F1.09
sg11
(lp135
I96
aI168
aI92
aI59
asg13
(lp136
I93
aI144
aI48
aI90
aI158
aI141
asg15
g133
sg16
F0.1256
ssS'media-ad.jp'
p137
(dp138
g10
F7.74
sg11
(lp139
I0
aI0
aI0
aI0
asg13
(lp140
I0
aI0
aI0
aI0
aI0
aI0
asg15
g137
sg16
F0.0167
ssS'google.com.mx'
p141
(dp142
g10
F8.14
sg11
(lp143
I106
aI89
aI102
aI106
asg13
(lp144
I88
aI109
aI109
aI82
aI92
aI121
asg15
g141
sg16
F1.324
ssS'tsite.jp'
p145
(dp146
g10
F5.1
sg11
(lp147
I68
aI198
aI96
aI58
asg13
(lp148
I60
aI80
aI190
aI111
aI57
aI0
asg15
g145
sg16
F0.1234
ssS'craigslist.org'
p149
(dp150
g10
F14.17
sg11
(lp151
I56
aI94
aI127
aI135
asg13
(lp152
I75
aI87
aI102
aI127
aI125
aI107
asg15
g149
sg16
F0.8718
ssS'reddit.com'
p153
(dp154
g10
F9.37
sg11
(lp155
I86
aI95
aI112
aI109
asg13
(lp156
I123
aI113
aI93
aI86
aI69
aI78
asg15
g153
sg16
F2.066
ssS'gpoint.co.jp'
p157
(dp158
g10
F11.09
sg11
(lp159
I0
aI0
aI0
aI0
asg13
(lp160
I0
aI0
aI0
aI0
aI0
aI0
asg15
g157
sg16
F0.0257
ssS'google.co.in'
p161
(dp162
g10
F13.62
sg11
(lp163
I198
aI96
aI35
aI37
asg13
(lp164
I167
aI125
aI64
aI39
aI37
aI37
asg15
g161
sg16
F5.362
ssS'panasonic.jp'
p165
(dp166
g10
F9.59
sg11
(lp167
I48
aI137
aI134
aI121
asg13
(lp168
I24
aI36
aI198
aI198
aI198
aI0
asg15
g165
sg16
F0.0763
ssS'dreammail.jp'
p169
(dp170
g10
F8.09
sg11
(lp171
I0
aI0
aI0
aI0
asg13
(lp172
I0
aI0
aI0
aI0
aI0
aI0
asg15
g169
sg16
F0.0198
ssS'dreevee.com'
p173
(dp174
g10
F4.91
sg11
(lp175
I0
aI0
aI0
aI0
asg13
(lp176
I0
aI0
aI0
aI0
aI0
aI0
asg15
g173
sg16
F0.0363
ssS'pointservice.com'
p177
(dp178
g10
F12.6
sg11
(lp179
I0
aI0
aI0
aI0
asg13
(lp180
I0
aI0
aI0
aI0
aI0
aI0
asg15
g177
sg16
F0.00864
ssS'walmart.com'
p181
(dp182
g10
F5.95
sg11
(lp183
I52
aI95
aI140
aI128
asg13
(lp184
I73
aI83
aI103
aI125
aI132
aI152
asg15
g181
sg16
F0.5068
ssS'amazon.com'
p185
(dp186
g10
F12.31
sg11
(lp187
I82
aI102
aI103
aI117
asg13
(lp188
I76
aI90
aI102
aI114
aI129
aI141
asg15
g185
sg16
F7.484
ssS'indianexpress.com'
p189
(dp190
g10
F2.37
sg11
(lp191
I188
aI108
aI51
aI57
asg13
(lp192
I119
aI123
aI77
aI63
aI92
aI72
asg15
g189
sg16
F0.1634
ssS'office.com'
p193
(dp194
g10
F2.79
sg11
(lp195
I106
aI112
aI83
aI98
asg13
(lp196
I85
aI98
aI105
aI102
aI110
aI94
asg15
g193
sg16
F1.423
ssS'fruitmail.net'
p197
(dp198
g10
F10.59
sg11
(lp199
I34
aI64
aI163
aI182
asg13
(lp200
I125
aI97
aI91
aI111
aI70
aI70
asg15
g197
sg16
F0.0153
ssS'indiatimes.com'
p201
(dp202
g10
F4.82
sg11
(lp203
I180
aI105
aI57
aI61
asg13
(lp204
I121
aI121
aI80
aI62
aI90
aI102
asg15
g201
sg16
F0.6589
ssS'yahoo.com'
p205
(dp206
g10
F6.97
sg11
(lp207
I80
aI94
aI120
aI113
asg13
(lp208
I97
aI96
aI102
aI105
aI102
aI112
asg15
g205
sg16
F10.908
ssS'google.de'
p209
(dp210
g10
F9.08
sg11
(lp211
I66
aI162
aI110
aI88
asg13
(lp212
I66
aI83
aI130
aI135
aI97
aI68
asg15
g209
sg16
F2.3535
ssS'fc2.com'
p213
(dp214
g10
F6.08
sg11
(lp215
I102
aI107
aI97
aI94
asg13
(lp216
I95
aI90
aI119
aI105
aI98
aI69
asg15
g213
sg16
F1.3777
ssS'netmile.co.jp'
p217
(dp218
g10
F7.99
sg11
(lp219
I0
aI0
aI0
aI0
asg13
(lp220
I0
aI0
aI0
aI0
aI0
aI0
asg15
g217
sg16
F0.01213
ssS'livedoor.com'
p221
(dp222
g10
F6.75
sg11
(lp223
I62
aI94
aI139
aI127
asg13
(lp224
I72
aI74
aI145
aI132
aI108
aI119
asg15
g221
sg16
F0.1774
ssS'instagram.com'
p225
(dp226
g10
F7.58
sg11
(lp227
I91
aI98
aI105
aI106
asg13
(lp228
I112
aI117
aI98
aI85
aI62
aI65
asg15
g225
sg16
F2.795
ssS'google.com'
p229
(dp230
g10
F18.08
sg11
(lp231
I95
aI98
aI104
aI103
asg13
(lp232
I98
aI98
aI102
aI98
aI98
aI102
asg15
g229
sg16
F42.144
ssS'amazon.co.jp'
p233
(dp234
g10
F14.91
sg11
(lp235
I62
aI114
aI121
aI125
asg13
(lp236
I48
aI83
aI149
aI137
aI123
aI88
asg15
g233
sg16
F1.946
ssS'ndtv.com'
p237
(dp238
g10
F2.37
sg11
(lp239
I175
aI105
aI60
aI60
asg13
(lp240
I126
aI122
aI81
aI61
aI72
aI74
asg15
g237
sg16
F0.3314
ssS'microsoft.com'
p241
(dp242
g10
F2.5
sg11
(lp243
I92
aI98
aI107
aI105
asg13
(lp244
I96
aI95
aI98
aI108
aI104
aI119
asg15
g241
sg16
F2.422
ssS'pointtown.com'
p245
(dp246
g10
F22.9
sg11
(lp247
I25
aI62
aI198
aI154
asg13
(lp248
I121
aI85
aI87
aI127
aI87
aI120
asg15
g245
sg16
F0.0288
ssS'paypal.com'
p249
(dp250
g10
F4.74
sg11
(lp251
I91
aI107
aI98
aI104
asg13
(lp252
I67
aI87
aI114
aI123
aI117
aI124
asg15
g249
sg16
F1.883
ssS'google.co.uk'
p253
(dp254
g10
F10.26
sg11
(lp255
I124
aI131
aI77
aI74
asg13
(lp256
I89
aI91
aI104
aI118
aI107
aI93
asg15
g253
sg16
F2.0162
ssS'google.co.jp'
p257
(dp258
g10
F13.77
sg11
(lp259
I54
aI129
aI107
aI143
asg13
(lp260
I54
aI75
aI159
aI155
aI104
aI85
asg15
g257
sg16
F3.306
ssS'infoseek.co.jp'
p261
(dp262
g10
F9.58
sg11
(lp263
I30
aI97
aI184
aI138
asg13
(lp264
I87
aI85
aI108
aI124
aI123
aI96
asg15
g261
sg16
F0.1053
ssS'amazon.in'
p265
(dp266
g10
F10.6
sg11
(lp267
I198
aI95
aI44
aI48
asg13
(lp268
I143
aI135
aI68
aI42
aI46
aI57
asg15
g265
sg16
F0.8507
ssS'warau.jp'
p269
(dp270
g10
F24.9
sg11
(lp271
I0
aI0
aI0
aI0
asg13
(lp272
I0
aI0
aI0
aI0
aI0
aI0
asg15
g269
sg16
F0.01532
ssS'outbrain.com'
p273
(dp274
g10
F1.65
sg11
(lp275
I70
aI105
aI115
aI119
asg13
(lp276
I63
aI76
aI114
aI129
aI145
aI156
asg15
g273
sg16
F1.3504
ssS'fenrir-inc.com'
p277
(dp278
g10
F6.87
sg11
(lp279
I23
aI198
aI167
aI44
asg13
(lp280
I27
aI45
aI198
aI114
aI0
aI0
asg15
g277
sg16
F0.00982
sssS'node_dict_factory'
p281
c__builtin__
dict
p282
sS'edge_attr_dict_factory'
p283
g282
sS'edge'
p284
(dp285
g8
(dp286
S'yahoo.com'
p287
(dp288
S'weight'
p289
F0.012
ssS'bing.com'
p290
(dp291
g289
F0.044
ssg89
(dp292
g289
F0.005
ssS'youtube.com'
p293
(dp294
g289
F0.049
ssS'google.com'
p295
(dp296
g289
F0.054000000000000006
ssS'live.com'
p297
(dp298
g289
F0.11599999999999999
ssg41
(dp299
g289
F0.006999999999999999
ssS'amazon.com'
p300
(dp301
g289
F0.006999999999999999
ssS'facebook.com'
p302
(dp303
g289
F0.071
ssS'outbrain.com'
p304
(dp305
g289
F0.011000000000000001
sssg17
(dp306
S'amazon.co.jp'
p307
(dp308
g289
F0.013999999999999999
ssg257
(dp309
g289
F0.012
ssS'yahoo.co.jp'
p310
(dp311
g289
F0.009000000000000001
sssg21
(dp312
S'ebay.com'
p313
(dp314
g289
F0.006999999999999999
ssS'amazon.com'
p315
(dp316
g289
F0.006
sssg25
(dp317
g287
(dp318
g289
F0.011
ssg73
(dp319
g289
F0.013000000000000001
ssg290
(dp320
g289
F0.022
ssg310
(dp321
g289
F0.012
ssS'youtube.com'
p322
(dp323
g289
F0.0175
ssS'google.com'
p324
(dp325
g289
F0.156
ssg161
(dp326
g289
F0.018000000000000002
ssS'google.co.uk'
p327
(dp328
g289
F0.023
ssg109
(dp329
g289
F0.017
ssg257
(dp330
g289
F0.027000000000000003
ssS'google.de'
p331
(dp332
g289
F0.033
ssS'facebook.com'
p333
(dp334
g289
F0.012
sssg29
(dp335
g287
(dp336
g289
F0.020000000000000004
ssS'msn.com'
p337
g294
sg73
(dp338
g289
F0.018000000000000002
ssS'bing.com'
p339
(dp340
g289
F0.023500000000000004
ssS'reddit.com'
p341
(dp342
g289
F0.012
ssS'wikipedia.org'
p343
g323
sg307
(dp344
g289
F0.035
ssg324
(dp345
g289
F0.10750000000000001
ssS'amazon.com'
p346
(dp347
g289
F0.02
ssg310
(dp348
g289
F0.027000000000000003
ssg161
(dp349
g289
F0.031
ssg97
(dp350
g289
F0.006
ssS'rakuten.co.jp'
p351
(dp352
g289
F0.013999999999999999
ssg297
(dp353
g289
F0.027999999999999997
ssg249
(dp354
g289
F0.012
ssS'twitter.com'
p355
(dp356
g289
F0.01
ssg257
(dp357
g289
F0.027000000000000003
ssS'infoseek.co.jp'
p358
(dp359
g289
F0.013000000000000001
ssg209
(dp360
g289
F0.01
ssg333
(dp361
g289
F0.0775
ssg313
(dp362
g289
F0.025
sssg33
(dp363
g287
(dp364
g289
F0.018
ssS'bing.com'
p365
(dp366
g289
F0.01
ssS'slickdeals.net'
p367
g314
sg149
(dp368
g289
F0.013000000000000001
ssS'youtube.com'
p369
g362
sg324
(dp370
g289
F0.109
ssS'live.com'
p371
(dp372
g289
F0.011000000000000001
ssg249
(dp373
g289
F0.031
ssg315
(dp374
g289
F0.045500000000000006
ssS'facebook.com'
p375
(dp376
g289
F0.042
sssg37
(dp377
g287
(dp378
g289
F0.0115
ssg337
g298
sS'bing.com'
p379
(dp380
g289
F0.0135
ssS'youtube.com'
p381
g353
sg313
g372
sg141
(dp382
g289
F0.008
ssg97
(dp383
g289
F0.006
ssg241
(dp384
g289
F0.021
ssg249
(dp385
g289
F0.011000000000000001
ssg315
(dp386
g289
F0.0125
ssg333
(dp387
g289
F0.047
ssg193
(dp388
g289
F0.01
ssS'google.com'
p389
(dp390
g289
F0.086
sssg41
(dp391
g337
g299
ssg45
(dp392
g310
(dp393
g289
F0.061
ssS'youtube.com'
p394
g352
sS'google.com'
p395
(dp396
g289
F0.034
ssg157
(dp397
g289
F0.031
ssg307
(dp398
g289
F0.044000000000000004
ssg93
(dp399
g289
F0.016
ssg97
(dp400
g289
F0.29800000000000004
ssg257
(dp401
g289
F0.07050000000000001
ssg261
(dp402
g289
F0.10849999999999999
ssS'kakaku.com'
p403
(dp404
g289
F0.013999999999999999
ssS'facebook.com'
p405
(dp406
g289
F0.01
sssg49
(dp407
g161
(dp408
g289
F0.006
sssg53
(dp409
g81
(dp410
g289
F0.045
sssg57
(dp411
g358
(dp412
g289
F0.016
sssg61
(dp413
g161
(dp414
g289
F0.006999999999999999
sssg65
(dp415
g287
(dp416
g289
F0.005
ssg161
(dp417
g289
F0.006999999999999999
ssg324
(dp418
g289
F0.006999999999999999
sssg69
(dp419
g157
(dp420
g289
F0.023
sssg73
(dp421
g161
(dp422
g289
F0.24
ssg153
(dp423
g289
F0.013999999999999999
ssg25
g319
sg29
g338
sg229
(dp424
g289
F0.12300000000000001
ssg237
(dp425
g289
F0.01
ssg273
(dp426
g289
F0.027000000000000003
ssg189
(dp427
g289
F0.01
ssg121
(dp428
g289
F0.062
ssg201
(dp429
g289
F0.026000000000000002
sssg77
(dp430
g287
(dp431
g289
F0.0105
ssg337
g291
sS'wikipedia.org'
p432
g320
sg322
g340
sg313
g366
sg297
g380
sS'microsoft.com'
p433
(dp434
g289
F0.004
ssg315
(dp435
g289
F0.0075
ssg333
(dp436
g289
F0.022
ssg133
(dp437
g289
F0.011000000000000001
ssS'google.com'
p438
(dp439
g289
F0.031
sssg81
(dp440
g101
(dp441
g289
F0.18
ssg53
g410
sg157
(dp442
g289
F0.052
ssg145
(dp443
g289
F0.15
ssg217
(dp444
g289
F0.038
ssg169
(dp445
g289
F0.064
ssg165
(dp446
g289
F0.038
ssg269
(dp447
g289
F0.040999999999999995
ssg197
(dp448
g289
F0.027000000000000003
ssg129
(dp449
g289
F0.04
sssg85
(dp450
g249
(dp451
g289
F0.009000000000000001
sssg89
(dp452
g337
g292
sS'nicovideo.jp'
p453
g311
sS'fc2.com'
p454
(dp455
g289
F0.013999999999999999
ssg157
(dp456
g289
F0.039
ssS'wikipedia.org'
p457
g321
sS'youtube.com'
p458
g348
sS'google.com'
p459
(dp460
g289
F0.026000000000000002
ssg307
(dp461
g289
F0.065
ssS'rakuten.co.jp'
p462
g393
sg97
(dp463
g289
F0.059000000000000004
ssS'twitter.com'
p464
(dp465
g289
F0.015
ssg257
(dp466
g289
F0.0665
ssg358
(dp467
g289
F0.08
ssS'facebook.com'
p468
(dp469
g289
F0.017
sssg93
(dp470
g351
g399
ssg97
(dp471
S'yahoo.co.jp'
p472
g463
sS'youtube.com'
p473
g350
sS'google.com'
p474
(dp475
g289
F0.025
ssS'live.com'
p476
g383
sS'amazon.co.jp'
p477
(dp478
g289
F0.02
ssg351
g400
sS'google.co.jp'
p479
(dp480
g289
F0.092
ssg358
(dp481
g289
F0.01
ssS'facebook.com'
p482
(dp483
g289
F0.005
ssg277
(dp484
g289
F0.006
sssg101
(dp485
g81
g441
ssg105
(dp486
g310
g465
sg322
g356
sg324
(dp487
g289
F0.006999999999999999
ssg307
(dp488
g289
F0.017
ssg257
(dp489
g289
F0.013999999999999999
ssg333
(dp490
g289
F0.013999999999999999
sssg109
(dp491
g432
g329
ssg113
(dp492
g249
(dp493
g289
F0.006
sssg117
(dp494
g307
(dp495
g289
F0.016
ssg351
g404
ssg121
(dp496
S'yahoo.com'
p497
(dp498
g289
F0.0415
ssg337
g303
sg73
g428
sg77
g436
sg310
g469
sg225
(dp499
g289
F0.006
ssg322
g361
sg324
(dp500
g289
F0.0795
ssg37
g387
sg307
(dp501
g289
F0.017
ssg161
(dp502
g289
F0.0235
ssg97
g483
sg351
g406
sS'wikipedia.org'
p503
g334
sg249
(dp504
g289
F0.036000000000000004
ssS'twitter.com'
p505
g490
sg257
(dp506
g289
F0.011000000000000001
ssS'amazon.com'
p507
(dp508
g289
F0.0325
ssg313
g376
ssg125
(dp509
g157
(dp510
g289
F0.04
sssg129
(dp511
g81
g449
ssg133
(dp512
g290
g437
ssg137
(dp513
g157
(dp514
g289
F0.046
sssg141
(dp515
g297
g382
ssg145
(dp516
g81
g443
ssg149
(dp517
g313
g368
ssg153
(dp518
g322
g342
sg73
g423
sg324
(dp519
g289
F0.005
ssg315
(dp520
g289
F0.006999999999999999
sssg157
(dp521
g81
g442
sS'yahoo.co.jp'
p522
g456
sS'rakuten.co.jp'
p523
g397
sg177
(dp524
g289
F0.022000000000000002
ssg69
g420
sg173
(dp525
g289
F0.026000000000000002
ssg137
g514
sg358
(dp526
g289
F0.025
ssg125
g510
sS'google.co.jp'
p527
(dp528
g289
F0.023
sssg161
(dp529
g205
(dp530
g289
F0.009000000000000001
ssg73
g422
sS'wikipedia.org'
p531
g326
sS'youtube.com'
p532
g349
sg324
(dp533
g289
F0.04
ssg49
g408
sS'facebook.com'
p534
g502
sg265
(dp535
g289
F0.01
ssg61
g414
sS'indiatimes.com'
p536
(dp537
g289
F0.005
ssg65
g417
ssg165
(dp538
g81
g446
ssg169
(dp539
g81
g445
ssg173
(dp540
g157
g525
ssg177
(dp541
g157
g524
ssg181
(dp542
g315
(dp543
g289
F0.006999999999999999
sssg185
(dp544
g287
(dp545
g289
F0.021500000000000002
ssg337
g301
sS'bing.com'
p546
g435
sg21
g316
sS'reddit.com'
p547
g520
sg322
g347
sg324
(dp548
g289
F0.1205
ssS'live.com'
p549
g386
sg249
(dp550
g289
F0.011000000000000001
ssg181
g543
sg333
g508
sg313
g374
ssg189
(dp551
g73
g427
ssg193
(dp552
g297
g388
ssg197
(dp553
g81
g448
ssg201
(dp554
g73
g429
sg161
g537
ssg205
(dp555
g8
g288
sg161
g530
sS'bing.com'
p556
g431
sS'wikipedia.org'
p557
g318
sg322
g336
sg324
(dp558
g289
F0.058499999999999996
ssS'live.com'
p559
g378
sg249
(dp560
g289
F0.016
ssg315
g545
sg333
g498
sS'ebay.com'
p561
g364
sS'linkedin.com'
p562
g416
ssg209
(dp563
g432
g332
sg322
g360
ssg213
(dp564
g307
(dp565
g289
F0.012
ssg257
(dp566
g289
F0.016
ssg310
g455
ssg217
(dp567
g81
g444
ssg221
(dp568
g358
(dp569
g289
F0.015
sssg225
(dp570
g333
g499
ssg229
(dp571
S'yahoo.com'
p572
g558
sg337
g296
sg73
g424
sg290
g439
sS'reddit.com'
p573
g519
sS'wikipedia.org'
p574
g325
sS'youtube.com'
p575
g345
sg33
g370
sg297
g390
sg310
g460
sg161
g533
sg97
g475
sg351
g396
sg249
(dp576
g289
F0.135
ssg105
g487
sg257
(dp577
g289
F0.023
ssg358
(dp578
g289
F0.027000000000000003
ssg185
g548
sg333
g500
sg307
(dp579
g289
F0.040999999999999995
ssS'linkedin.com'
p580
g418
ssg233
(dp581
S'nicovideo.jp'
p582
g308
sS'fc2.com'
p583
g565
sg310
g461
sS'youtube.com'
p584
g344
sS'google.com'
p585
g579
sg351
g398
sg97
g478
sS'twitter.com'
p586
g488
sg257
(dp587
g289
F0.08549999999999999
ssg358
(dp588
g289
F0.017
ssg117
g495
sS'facebook.com'
p589
g501
ssg237
(dp590
g73
g425
ssg241
(dp591
g297
g384
sg290
g434
ssg245
(dp592
g358
(dp593
g289
F0.017
sssg249
(dp594
S'yahoo.com'
p595
g560
sg85
g451
sS'youtube.com'
p596
g354
sg313
g373
sg297
g385
sg253
(dp597
g289
F0.006999999999999999
ssg113
g493
sS'amazon.com'
p598
g550
sS'facebook.com'
p599
g504
sS'google.com'
p600
g576
ssg253
(dp601
g432
g328
sg249
g597
ssg257
(dp602
g17
g309
sg213
g566
sg310
g466
sg432
g330
sS'youtube.com'
p603
g357
sS'google.com'
p604
g577
sg157
g528
sg233
g587
sg45
g401
sg97
g480
sS'twitter.com'
p605
g489
sg358
(dp606
g289
F0.038
ssS'facebook.com'
p607
g506
ssg261
(dp608
S'yahoo.co.jp'
p609
g467
sg57
g412
sS'google.com'
p610
g578
sg157
g526
sS'amazon.co.jp'
p611
g588
sg351
g402
sg97
g481
sg245
g593
sg221
g569
sS'google.co.jp'
p612
g606
sS'youtube.com'
p613
g359
ssg265
(dp614
g161
g535
ssg269
(dp615
g81
g447
ssg273
(dp616
g337
g305
sg73
g426
ssg277
(dp617
g97
g484
sssS'graph'
p618
(dp619
sS'adjlist_dict_factory'
p620
g282
sS'adj'
p621
g285
sb.