ccopy_reg
_reconstructor
p0
(cnetworkx.classes.graph
Graph
p1
c__builtin__
object
p2
Ntp3
Rp4
(dp5
S'node'
p6
(dp7
S'msn.com'
p8
(dp9
S'pageviews'
p10
F4.23
sS'ilist'
p11
(lp12
I86
aI94
aI113
aI111
asS'alist'
p13
(lp14
I88
aI96
aI98
aI115
aI108
aI110
asS'name'
p15
g8
sS'reach'
p16
F4.411
ssS'nicovideo.jp'
p17
(dp18
g10
F17.07
sg11
(lp19
I79
aI94
aI125
aI111
asg13
(lp20
I122
aI80
aI111
aI107
aI87
aI98
asg15
g17
sg16
F0.8203
ssS'slickdeals.net'
p21
(dp22
g10
F3.97
sg11
(lp23
I31
aI73
aI182
aI159
asg13
(lp24
I98
aI98
aI102
aI113
aI77
aI91
asg15
g21
sg16
F0.3033
ssS'wikipedia.org'
p25
(dp26
g10
F3.65
sg11
(lp27
I118
aI112
aI81
aI87
asg13
(lp28
I98
aI98
aI102
aI98
aI103
aI98
asg15
g25
sg16
F9.593
ssS'youtube.com'
p29
(dp30
g10
F13.14
sg11
(lp31
I115
aI108
aI86
aI89
asg13
(lp32
I92
aI97
aI107
aI102
aI103
aI102
asg15
g29
sg16
F35.863
ssS'ebay.com'
p33
(dp34
g10
F12.57
sg11
(lp35
I84
aI104
aI107
aI109
asg13
(lp36
I74
aI90
aI106
aI118
aI122
aI129
asg15
g33
sg16
F2.177
ssS'live.com'
p37
(dp38
g10
F3.8
sg11
(lp39
I107
aI107
aI91
aI94
asg13
(lp40
I95
aI103
aI103
aI98
aI94
aI94
asg15
g37
sg16
F6.605
ssS'taboola.com'
p41
(dp42
g10
F1.51
sg11
(lp43
I66
aI94
aI121
aI128
asg13
(lp44
I69
aI79
aI105
aI126
aI150
aI175
asg15
g41
sg16
F0.6075
ssS'rakuten.co.jp'
p45
(dp46
g10
F11.7
sg11
(lp47
I57
aI97
aI127
aI146
asg13
(lp48
I61
aI84
aI134
aI138
aI117
aI95
asg15
g45
sg16
F0.9809
ssS'stackoverflow.com'
p49
(dp50
g10
F4.36
sg11
(lp51
I111
aI102
aI95
aI91
asg13
(lp52
I108
aI123
aI96
aI80
aI63
aI64
asg15
g49
sg16
F1.635
ssS'kingsoft.jp'
p53
(dp54
g10
F2.25
sg11
(lp55
I51
aI141
aI117
aI104
asg13
(lp56
I43
aI64
aI150
aI164
aI0
aI0
asg15
g53
sg16
F0.0181
ssS'flipkart.com'
p57
(dp58
g10
F8.49
sg11
(lp59
I198
aI96
aI41
aI43
asg13
(lp60
I154
aI139
aI61
aI37
aI37
aI47
asg15
g57
sg16
F0.6643
ssS'linkedin.com'
p61
(dp62
g10
F6.26
sg11
(lp63
I83
aI98
aI103
aI119
asg13
(lp64
I73
aI95
aI109
aI116
aI112
aI108
asg15
g61
sg16
F3.599
ssS'thehindu.com'
p65
(dp66
g13
(lp67
I116
aI128
aI75
aI63
aI93
aI75
asg10
F2.36
sg11
(lp68
I181
aI106
aI58
aI58
asg15
g65
sg16
F0.128
ssS'bing.com'
p69
(dp70
g10
F3.15
sg11
(lp71
I49
aI79
aI161
aI140
asg13
(lp72
I98
aI90
aI102
aI116
aI98
aI114
asg15
g69
sg16
F4.722
ssS'etsy.com'
p73
(dp74
g10
F9.06
sg11
(lp75
I60
aI93
aI132
aI127
asg13
(lp76
I86
aI98
aI106
aI108
aI95
aI98
asg15
g73
sg16
F0.4569
ssS'yahoo.co.jp'
p77
(dp78
g10
F16.75
sg11
(lp79
I59
aI106
aI118
aI142
asg13
(lp80
I59
aI71
aI162
aI141
aI122
aI74
asg15
g77
sg16
F3.078
ssS'rakuten-card.co.jp'
p81
(dp82
g10
F4.79
sg11
(lp83
I44
aI71
aI174
aI146
asg13
(lp84
I107
aI111
aI97
aI98
aI65
aI45
asg15
g81
sg16
F0.0826
ssS'rakuten.ne.jp'
p85
(dp86
g10
F1.78
sg11
(lp87
I43
aI80
aI128
aI198
asg13
(lp88
I45
aI67
aI151
aI181
aI198
aI58
asg15
g85
sg16
F0.1216
ssS'twitter.com'
p89
(dp90
g10
F5.25
sg11
(lp91
I89
aI98
aI106
aI109
asg13
(lp92
I91
aI98
aI107
aI106
aI95
aI93
asg15
g89
sg16
F6.573
ssS'google.fr'
p93
(dp94
g10
F9.61
sg11
(lp95
I126
aI151
aI74
aI57
asg13
(lp96
I90
aI105
aI119
aI93
aI65
aI97
asg15
g93
sg16
F1.8606
ssS'usps.com'
p97
(dp98
g10
F3.1
sg11
(lp99
I43
aI87
aI150
aI143
asg13
(lp100
I77
aI87
aI98
aI126
aI130
aI125
asg15
g97
sg16
F0.3484
ssS'kakaku.com'
p101
(dp102
g10
F7.02
sg11
(lp103
I42
aI95
aI171
aI142
asg13
(lp104
I50
aI73
aI157
aI149
aI138
aI98
asg15
g101
sg16
F0.41
ssS'facebook.com'
p105
(dp106
g10
F10.89
sg11
(lp107
I91
aI98
aI108
aI105
asg13
(lp108
I95
aI96
aI107
aI104
aI98
aI98
asg15
g105
sg16
F35.296
ssS'homepage-web.com'
p109
(dp110
g10
F1.09
sg11
(lp111
I96
aI168
aI92
aI59
asg13
(lp112
I93
aI144
aI48
aI90
aI158
aI141
asg15
g109
sg16
F0.1256
ssS'google.com.mx'
p113
(dp114
g10
F8.14
sg11
(lp115
I106
aI89
aI102
aI106
asg13
(lp116
I88
aI109
aI109
aI82
aI92
aI121
asg15
g113
sg16
F1.324
ssS'craigslist.org'
p117
(dp118
g10
F14.17
sg11
(lp119
I56
aI94
aI127
aI135
asg13
(lp120
I75
aI87
aI102
aI127
aI125
aI107
asg15
g117
sg16
F0.8718
ssS'reddit.com'
p121
(dp122
g10
F9.37
sg11
(lp123
I86
aI95
aI112
aI109
asg13
(lp124
I123
aI113
aI93
aI86
aI69
aI78
asg15
g121
sg16
F2.066
ssS'gpoint.co.jp'
p125
(dp126
g10
F11.09
sg11
(lp127
I0
aI0
aI0
aI0
asg13
(lp128
I0
aI0
aI0
aI0
aI0
aI0
asg15
g125
sg16
F0.0257
ssS'google.co.in'
p129
(dp130
g10
F13.62
sg11
(lp131
I198
aI96
aI35
aI37
asg13
(lp132
I167
aI125
aI64
aI39
aI37
aI37
asg15
g129
sg16
F5.362
ssS'walmart.com'
p133
(dp134
g10
F5.95
sg11
(lp135
I52
aI95
aI140
aI128
asg13
(lp136
I73
aI83
aI103
aI125
aI132
aI152
asg15
g133
sg16
F0.5068
ssS'amazon.com'
p137
(dp138
g10
F12.31
sg11
(lp139
I82
aI102
aI103
aI117
asg13
(lp140
I76
aI90
aI102
aI114
aI129
aI141
asg15
g137
sg16
F7.484
ssS'indianexpress.com'
p141
(dp142
g10
F2.37
sg11
(lp143
I188
aI108
aI51
aI57
asg13
(lp144
I119
aI123
aI77
aI63
aI92
aI72
asg15
g141
sg16
F0.1634
ssS'office.com'
p145
(dp146
g10
F2.79
sg11
(lp147
I106
aI112
aI83
aI98
asg13
(lp148
I85
aI98
aI105
aI102
aI110
aI94
asg15
g145
sg16
F1.423
ssS'indiatimes.com'
p149
(dp150
g10
F4.82
sg11
(lp151
I180
aI105
aI57
aI61
asg13
(lp152
I121
aI121
aI80
aI62
aI90
aI102
asg15
g149
sg16
F0.6589
ssS'yahoo.com'
p153
(dp154
g10
F6.97
sg11
(lp155
I80
aI94
aI120
aI113
asg13
(lp156
I97
aI96
aI102
aI105
aI102
aI112
asg15
g153
sg16
F10.908
ssS'google.de'
p157
(dp158
g10
F9.08
sg11
(lp159
I66
aI162
aI110
aI88
asg13
(lp160
I66
aI83
aI130
aI135
aI97
aI68
asg15
g157
sg16
F2.3535
ssS'fc2.com'
p161
(dp162
g10
F6.08
sg11
(lp163
I102
aI107
aI97
aI94
asg13
(lp164
I95
aI90
aI119
aI105
aI98
aI69
asg15
g161
sg16
F1.3777
ssS'livedoor.com'
p165
(dp166
g10
F6.75
sg11
(lp167
I62
aI94
aI139
aI127
asg13
(lp168
I72
aI74
aI145
aI132
aI108
aI119
asg15
g165
sg16
F0.1774
ssS'instagram.com'
p169
(dp170
g10
F7.58
sg11
(lp171
I91
aI98
aI105
aI106
asg13
(lp172
I112
aI117
aI98
aI85
aI62
aI65
asg15
g169
sg16
F2.795
ssS'google.com'
p173
(dp174
g10
F18.08
sg11
(lp175
I95
aI98
aI104
aI103
asg13
(lp176
I98
aI98
aI102
aI98
aI98
aI102
asg15
g173
sg16
F42.144
ssS'amazon.co.jp'
p177
(dp178
g10
F14.91
sg11
(lp179
I62
aI114
aI121
aI125
asg13
(lp180
I48
aI83
aI149
aI137
aI123
aI88
asg15
g177
sg16
F1.946
ssS'ndtv.com'
p181
(dp182
g10
F2.37
sg11
(lp183
I175
aI105
aI60
aI60
asg13
(lp184
I126
aI122
aI81
aI61
aI72
aI74
asg15
g181
sg16
F0.3314
ssS'microsoft.com'
p185
(dp186
g10
F2.5
sg11
(lp187
I92
aI98
aI107
aI105
asg13
(lp188
I96
aI95
aI98
aI108
aI104
aI119
asg15
g185
sg16
F2.422
ssS'pointtown.com'
p189
(dp190
g10
F22.9
sg11
(lp191
I25
aI62
aI198
aI154
asg13
(lp192
I121
aI85
aI87
aI127
aI87
aI120
asg15
g189
sg16
F0.0288
ssS'paypal.com'
p193
(dp194
g10
F4.74
sg11
(lp195
I91
aI107
aI98
aI104
asg13
(lp196
I67
aI87
aI114
aI123
aI117
aI124
asg15
g193
sg16
F1.883
ssS'google.co.uk'
p197
(dp198
g10
F10.26
sg11
(lp199
I124
aI131
aI77
aI74
asg13
(lp200
I89
aI91
aI104
aI118
aI107
aI93
asg15
g197
sg16
F2.0162
ssS'google.co.jp'
p201
(dp202
g10
F13.77
sg11
(lp203
I54
aI129
aI107
aI143
asg13
(lp204
I54
aI75
aI159
aI155
aI104
aI85
asg15
g201
sg16
F3.306
ssS'infoseek.co.jp'
p205
(dp206
g10
F9.58
sg11
(lp207
I30
aI97
aI184
aI138
asg13
(lp208
I87
aI85
aI108
aI124
aI123
aI96
asg15
g205
sg16
F0.1053
ssS'amazon.in'
p209
(dp210
g10
F10.6
sg11
(lp211
I198
aI95
aI44
aI48
asg13
(lp212
I143
aI135
aI68
aI42
aI46
aI57
asg15
g209
sg16
F0.8507
ssS'outbrain.com'
p213
(dp214
g10
F1.65
sg11
(lp215
I70
aI105
aI115
aI119
asg13
(lp216
I63
aI76
aI114
aI129
aI145
aI156
asg15
g213
sg16
F1.3504
ssS'fenrir-inc.com'
p217
(dp218
g10
F6.87
sg11
(lp219
I23
aI198
aI167
aI44
asg13
(lp220
I27
aI45
aI198
aI114
aI0
aI0
asg15
g217
sg16
F0.00982
sssS'node_dict_factory'
p221
c__builtin__
dict
p222
sS'edge_attr_dict_factory'
p223
g222
sS'edge'
p224
(dp225
g8
(dp226
S'yahoo.com'
p227
(dp228
S'weight'
p229
F0.012
ssS'bing.com'
p230
(dp231
g229
F0.044
ssg77
(dp232
g229
F0.005
ssS'youtube.com'
p233
(dp234
g229
F0.049
ssS'google.com'
p235
(dp236
g229
F0.054000000000000006
ssS'live.com'
p237
(dp238
g229
F0.11599999999999999
ssg41
(dp239
g229
F0.006999999999999999
ssS'amazon.com'
p240
(dp241
g229
F0.006999999999999999
ssS'facebook.com'
p242
(dp243
g229
F0.071
ssS'outbrain.com'
p244
(dp245
g229
F0.011000000000000001
sssg17
(dp246
S'amazon.co.jp'
p247
(dp248
g229
F0.013999999999999999
ssg201
(dp249
g229
F0.012
ssS'yahoo.co.jp'
p250
(dp251
g229
F0.009000000000000001
sssg21
(dp252
S'ebay.com'
p253
(dp254
g229
F0.006999999999999999
ssS'amazon.com'
p255
(dp256
g229
F0.006
sssg25
(dp257
g227
(dp258
g229
F0.011
ssg65
(dp259
g229
F0.013000000000000001
ssg230
(dp260
g229
F0.022
ssg250
(dp261
g229
F0.012
ssS'youtube.com'
p262
(dp263
g229
F0.0175
ssS'google.com'
p264
(dp265
g229
F0.156
ssg129
(dp266
g229
F0.018000000000000002
ssS'google.co.uk'
p267
(dp268
g229
F0.023
ssg93
(dp269
g229
F0.017
ssg201
(dp270
g229
F0.027000000000000003
ssS'google.de'
p271
(dp272
g229
F0.033
ssS'facebook.com'
p273
(dp274
g229
F0.012
sssg29
(dp275
g227
(dp276
g229
F0.020000000000000004
ssS'msn.com'
p277
g234
sg65
(dp278
g229
F0.018000000000000002
ssS'bing.com'
p279
(dp280
g229
F0.023500000000000004
ssS'reddit.com'
p281
(dp282
g229
F0.012
ssS'wikipedia.org'
p283
g263
sg247
(dp284
g229
F0.035
ssg264
(dp285
g229
F0.10750000000000001
ssS'amazon.com'
p286
(dp287
g229
F0.02
ssg250
(dp288
g229
F0.027000000000000003
ssg129
(dp289
g229
F0.031
ssg85
(dp290
g229
F0.006
ssS'rakuten.co.jp'
p291
(dp292
g229
F0.013999999999999999
ssg237
(dp293
g229
F0.027999999999999997
ssg193
(dp294
g229
F0.012
ssS'twitter.com'
p295
(dp296
g229
F0.01
ssg201
(dp297
g229
F0.027000000000000003
ssS'infoseek.co.jp'
p298
(dp299
g229
F0.013000000000000001
ssg157
(dp300
g229
F0.01
ssg273
(dp301
g229
F0.0775
ssg253
(dp302
g229
F0.025
sssg33
(dp303
g227
(dp304
g229
F0.018
ssS'bing.com'
p305
(dp306
g229
F0.01
ssS'slickdeals.net'
p307
g254
sg117
(dp308
g229
F0.013000000000000001
ssS'youtube.com'
p309
g302
sg264
(dp310
g229
F0.109
ssS'live.com'
p311
(dp312
g229
F0.011000000000000001
ssg193
(dp313
g229
F0.031
ssg255
(dp314
g229
F0.045500000000000006
ssS'facebook.com'
p315
(dp316
g229
F0.042
sssg37
(dp317
g227
(dp318
g229
F0.0115
ssg277
g238
sS'bing.com'
p319
(dp320
g229
F0.0135
ssS'youtube.com'
p321
g293
sg253
g312
sg113
(dp322
g229
F0.008
ssg85
(dp323
g229
F0.006
ssg185
(dp324
g229
F0.021
ssg193
(dp325
g229
F0.011000000000000001
ssg255
(dp326
g229
F0.0125
ssg273
(dp327
g229
F0.047
ssg145
(dp328
g229
F0.01
ssS'google.com'
p329
(dp330
g229
F0.086
sssg41
(dp331
g277
g239
ssg45
(dp332
g250
(dp333
g229
F0.061
ssS'youtube.com'
p334
g292
sS'google.com'
p335
(dp336
g229
F0.034
ssg247
(dp337
g229
F0.044000000000000004
ssg81
(dp338
g229
F0.016
ssg85
(dp339
g229
F0.29800000000000004
ssg201
(dp340
g229
F0.07050000000000001
ssg205
(dp341
g229
F0.10849999999999999
ssS'kakaku.com'
p342
(dp343
g229
F0.013999999999999999
ssS'facebook.com'
p344
(dp345
g229
F0.01
sssg49
(dp346
g129
(dp347
g229
F0.006
sssg53
(dp348
g298
(dp349
g229
F0.016
sssg57
(dp350
g129
(dp351
g229
F0.006999999999999999
sssg61
(dp352
g227
(dp353
g229
F0.005
ssg129
(dp354
g229
F0.006999999999999999
ssg264
(dp355
g229
F0.006999999999999999
sssg65
(dp356
g129
(dp357
g229
F0.24
ssg121
(dp358
g229
F0.013999999999999999
ssg25
g259
sg29
g278
sg173
(dp359
g229
F0.12300000000000001
ssg181
(dp360
g229
F0.01
ssg213
(dp361
g229
F0.027000000000000003
ssg141
(dp362
g229
F0.01
ssg105
(dp363
g229
F0.062
ssg149
(dp364
g229
F0.026000000000000002
sssg69
(dp365
g227
(dp366
g229
F0.0105
ssg277
g231
sS'wikipedia.org'
p367
g260
sg262
g280
sg253
g306
sg237
g320
sS'microsoft.com'
p368
(dp369
g229
F0.004
ssg255
(dp370
g229
F0.0075
ssg273
(dp371
g229
F0.022
ssg109
(dp372
g229
F0.011000000000000001
ssS'google.com'
p373
(dp374
g229
F0.031
sssg73
(dp375
g193
(dp376
g229
F0.009000000000000001
sssg77
(dp377
g277
g232
sS'nicovideo.jp'
p378
g251
sS'fc2.com'
p379
(dp380
g229
F0.013999999999999999
ssS'wikipedia.org'
p381
g261
sS'youtube.com'
p382
g288
sS'google.com'
p383
(dp384
g229
F0.026000000000000002
ssg247
(dp385
g229
F0.065
ssS'rakuten.co.jp'
p386
g333
sg85
(dp387
g229
F0.059000000000000004
ssS'twitter.com'
p388
(dp389
g229
F0.015
ssg201
(dp390
g229
F0.0665
ssg298
(dp391
g229
F0.08
ssS'facebook.com'
p392
(dp393
g229
F0.017
sssg81
(dp394
g291
g338
ssg85
(dp395
S'yahoo.co.jp'
p396
g387
sS'youtube.com'
p397
g290
sS'google.com'
p398
(dp399
g229
F0.025
ssS'live.com'
p400
g323
sS'amazon.co.jp'
p401
(dp402
g229
F0.02
ssg291
g339
sS'google.co.jp'
p403
(dp404
g229
F0.092
ssg298
(dp405
g229
F0.01
ssS'facebook.com'
p406
(dp407
g229
F0.005
ssg217
(dp408
g229
F0.006
sssg89
(dp409
g250
g389
sg262
g296
sg264
(dp410
g229
F0.006999999999999999
ssg247
(dp411
g229
F0.017
ssg201
(dp412
g229
F0.013999999999999999
ssg273
(dp413
g229
F0.013999999999999999
sssg93
(dp414
g367
g269
ssg97
(dp415
g193
(dp416
g229
F0.006
sssg101
(dp417
g247
(dp418
g229
F0.016
ssg291
g343
ssg105
(dp419
S'yahoo.com'
p420
(dp421
g229
F0.0415
ssg277
g243
sg65
g363
sg69
g371
sg250
g393
sg169
(dp422
g229
F0.006
ssg262
g301
sg264
(dp423
g229
F0.0795
ssg37
g327
sg247
(dp424
g229
F0.017
ssg129
(dp425
g229
F0.0235
ssg85
g407
sg291
g345
sS'wikipedia.org'
p426
g274
sg193
(dp427
g229
F0.036000000000000004
ssS'twitter.com'
p428
g413
sg201
(dp429
g229
F0.011000000000000001
ssS'amazon.com'
p430
(dp431
g229
F0.0325
ssg253
g316
ssg109
(dp432
g230
g372
ssg113
(dp433
g237
g322
ssg117
(dp434
g253
g308
ssg121
(dp435
g262
g282
sg65
g358
sg264
(dp436
g229
F0.005
ssg255
(dp437
g229
F0.006999999999999999
sssg125
(dp438
g298
(dp439
g229
F0.017
sssg129
(dp440
g153
(dp441
g229
F0.009000000000000001
ssg65
g357
sS'wikipedia.org'
p442
g266
sS'youtube.com'
p443
g289
sg264
(dp444
g229
F0.04
ssg49
g347
sS'facebook.com'
p445
g425
sg209
(dp446
g229
F0.01
ssg57
g351
sS'indiatimes.com'
p447
(dp448
g229
F0.005
ssg61
g354
ssg133
(dp449
g255
(dp450
g229
F0.006999999999999999
sssg137
(dp451
g227
(dp452
g229
F0.021500000000000002
ssg277
g241
sS'bing.com'
p453
g370
sg21
g256
sS'reddit.com'
p454
g437
sg262
g287
sg264
(dp455
g229
F0.1205
ssS'live.com'
p456
g326
sg193
(dp457
g229
F0.011000000000000001
ssg133
g450
sg273
g431
sg253
g314
ssg141
(dp458
g65
g362
ssg145
(dp459
g237
g328
ssg149
(dp460
g65
g364
sg129
g448
ssg153
(dp461
g8
g228
sg129
g441
sS'bing.com'
p462
g366
sS'wikipedia.org'
p463
g258
sg262
g276
sg264
(dp464
g229
F0.058499999999999996
ssS'live.com'
p465
g318
sg193
(dp466
g229
F0.016
ssg255
g452
sg273
g421
sS'ebay.com'
p467
g304
sS'linkedin.com'
p468
g353
ssg157
(dp469
g367
g272
sg262
g300
ssg161
(dp470
g247
(dp471
g229
F0.012
ssg201
(dp472
g229
F0.016
ssg250
g380
ssg165
(dp473
g298
(dp474
g229
F0.015
sssg169
(dp475
g273
g422
ssg173
(dp476
S'yahoo.com'
p477
g464
sg277
g236
sg65
g359
sg230
g374
sS'reddit.com'
p478
g436
sS'wikipedia.org'
p479
g265
sS'youtube.com'
p480
g285
sg33
g310
sg237
g330
sg250
g384
sg129
g444
sg85
g399
sg291
g336
sg193
(dp481
g229
F0.135
ssg89
g410
sg201
(dp482
g229
F0.023
ssg298
(dp483
g229
F0.027000000000000003
ssg137
g455
sg273
g423
sg247
(dp484
g229
F0.040999999999999995
ssS'linkedin.com'
p485
g355
ssg177
(dp486
S'nicovideo.jp'
p487
g248
sS'fc2.com'
p488
g471
sg250
g385
sS'youtube.com'
p489
g284
sS'google.com'
p490
g484
sg291
g337
sg85
g402
sS'twitter.com'
p491
g411
sg201
(dp492
g229
F0.08549999999999999
ssg298
(dp493
g229
F0.017
ssg101
g418
sS'facebook.com'
p494
g424
ssg181
(dp495
g65
g360
ssg185
(dp496
g237
g324
sg230
g369
ssg189
(dp497
g298
(dp498
g229
F0.017
sssg193
(dp499
S'yahoo.com'
p500
g466
sg73
g376
sS'youtube.com'
p501
g294
sg253
g313
sg237
g325
sg197
(dp502
g229
F0.006999999999999999
ssg97
g416
sS'amazon.com'
p503
g457
sS'facebook.com'
p504
g427
sS'google.com'
p505
g481
ssg197
(dp506
g367
g268
sg193
g502
ssg201
(dp507
g17
g249
sg161
g472
sg250
g390
sg367
g270
sS'youtube.com'
p508
g297
sS'google.com'
p509
g482
sg177
g492
sg45
g340
sg85
g404
sS'twitter.com'
p510
g412
sg298
(dp511
g229
F0.038
ssS'facebook.com'
p512
g429
ssg205
(dp513
S'yahoo.co.jp'
p514
g391
sg53
g349
sS'google.com'
p515
g483
sg125
g439
sS'amazon.co.jp'
p516
g493
sg291
g341
sg85
g405
sg189
g498
sg165
g474
sS'google.co.jp'
p517
g511
sS'youtube.com'
p518
g299
ssg209
(dp519
g129
g446
ssg213
(dp520
g277
g245
sg65
g361
ssg217
(dp521
g85
g408
sssS'graph'
p522
(dp523
sS'adjlist_dict_factory'
p524
g222
sS'adj'
p525
g225
sb.