ccopy_reg
_reconstructor
p0
(cnetworkx.classes.graph
Graph
p1
c__builtin__
object
p2
Ntp3
Rp4
(dp5
S'node'
p6
(dp7
S'wikipedia.org'
p8
(dp9
S'pageviews'
p10
F3.65
sS'ilist'
p11
(lp12
I87
asS'alist'
p13
(lp14
I98
asS'name'
p15
g8
sS'reach'
p16
F9.593
ssS'youtube.com'
p17
(dp18
g10
F13.14
sg11
(lp19
I89
asg13
(lp20
I102
asg15
g17
sg16
F35.863
ssS'ebay.com'
p21
(dp22
g10
F12.57
sg11
(lp23
I109
asg13
(lp24
I129
asg15
g21
sg16
F2.177
ssS'live.com'
p25
(dp26
g10
F3.8
sg11
(lp27
I94
asg13
(lp28
I94
asg15
g25
sg16
F6.605
ssS'stackoverflow.com'
p29
(dp30
g10
F4.36
sg11
(lp31
I91
asg13
(lp32
I64
asg15
g29
sg16
F1.635
ssS'flipkart.com'
p33
(dp34
g10
F8.49
sg11
(lp35
I43
asg13
(lp36
I47
asg15
g33
sg16
F0.6643
ssS'linkedin.com'
p37
(dp38
g10
F6.26
sg11
(lp39
I119
asg13
(lp40
I108
asg15
g37
sg16
F3.599
ssS'thehindu.com'
p41
(dp42
g13
(lp43
I75
asg10
F2.36
sg11
(lp44
I58
asg15
g41
sg16
F0.128
ssS'bing.com'
p45
(dp46
g10
F3.15
sg11
(lp47
I140
asg13
(lp48
I114
asg15
g45
sg16
F4.722
ssS'twitter.com'
p49
(dp50
g10
F5.25
sg11
(lp51
I109
asg13
(lp52
I93
asg15
g49
sg16
F6.573
ssS'facebook.com'
p53
(dp54
g10
F10.89
sg11
(lp55
I105
asg13
(lp56
I98
asg15
g53
sg16
F35.296
ssS'reddit.com'
p57
(dp58
g10
F9.37
sg11
(lp59
I109
asg13
(lp60
I78
asg15
g57
sg16
F2.066
ssS'google.co.in'
p61
(dp62
g10
F13.62
sg11
(lp63
I37
asg13
(lp64
I37
asg15
g61
sg16
F5.362
ssS'amazon.com'
p65
(dp66
g10
F12.31
sg11
(lp67
I117
asg13
(lp68
I141
asg15
g65
sg16
F7.484
ssS'indianexpress.com'
p69
(dp70
g10
F2.37
sg11
(lp71
I57
asg13
(lp72
I72
asg15
g69
sg16
F0.1634
ssS'indiatimes.com'
p73
(dp74
g10
F4.82
sg11
(lp75
I61
asg13
(lp76
I102
asg15
g73
sg16
F0.6589
ssS'yahoo.com'
p77
(dp78
g10
F6.97
sg11
(lp79
I113
asg13
(lp80
I112
asg15
g77
sg16
F10.908
ssS'instagram.com'
p81
(dp82
g10
F7.58
sg11
(lp83
I106
asg13
(lp84
I65
asg15
g81
sg16
F2.795
ssS'google.com'
p85
(dp86
g10
F18.08
sg11
(lp87
I103
asg13
(lp88
I102
asg15
g85
sg16
F42.144
ssS'ndtv.com'
p89
(dp90
g10
F2.37
sg11
(lp91
I60
asg13
(lp92
I74
asg15
g89
sg16
F0.3314
ssS'amazon.in'
p93
(dp94
g10
F10.6
sg11
(lp95
I48
asg13
(lp96
I57
asg15
g93
sg16
F0.8507
ssS'outbrain.com'
p97
(dp98
g10
F1.65
sg11
(lp99
I119
asg13
(lp100
I156
asg15
g97
sg16
F1.3504
sssS'node_dict_factory'
p101
c__builtin__
dict
p102
sS'edge_attr_dict_factory'
p103
g102
sS'edge'
p104
(dp105
g8
(dp106
S'google.com'
p107
(dp108
S'weight'
p109
F0.012
ssg41
(dp110
g109
F0.013000000000000001
ssg61
(dp111
g109
F0.013000000000000001
ssS'facebook.com'
p112
(dp113
g109
F0.006
sssg17
(dp114
g107
(dp115
g109
F0.044000000000000004
ssg41
(dp116
g109
F0.018000000000000002
ssg61
(dp117
g109
F0.051
ssg112
(dp118
g109
F0.061
sssg21
(dp119
g107
(dp120
g109
F0.005
sssg25
(dp121
g112
(dp122
g109
F0.013000000000000001
sssg29
(dp123
g61
(dp124
g109
F0.006
sssg33
(dp125
g61
(dp126
g109
F0.006999999999999999
sssg37
(dp127
g61
(dp128
g109
F0.006999999999999999
ssg107
(dp129
g109
F0.006999999999999999
sssg41
(dp130
g61
(dp131
g109
F0.24
ssg57
(dp132
g109
F0.013999999999999999
ssg8
g110
sg17
g116
sg85
(dp133
g109
F0.12300000000000001
ssg89
(dp134
g109
F0.01
ssg97
(dp135
g109
F0.027000000000000003
ssg69
(dp136
g109
F0.01
ssg53
(dp137
g109
F0.062
ssg73
(dp138
g109
F0.026000000000000002
sssg45
(dp139
g112
(dp140
g109
F0.006
sssg49
(dp141
g112
(dp142
g109
F0.013999999999999999
ssg107
(dp143
g109
F0.006999999999999999
sssg53
(dp144
S'yahoo.com'
p145
(dp146
g109
F0.02
ssg41
g137
sg45
g140
sg81
(dp147
g109
F0.006
ssS'youtube.com'
p148
g118
sg107
(dp149
g109
F0.0795
ssg25
g122
sg61
(dp150
g109
F0.0235
ssS'wikipedia.org'
p151
g113
sS'twitter.com'
p152
g142
sS'amazon.com'
p153
(dp154
g109
F0.012
sssg57
(dp155
g41
g132
sg107
(dp156
g109
F0.005
sssg61
(dp157
g77
(dp158
g109
F0.009000000000000001
ssg41
g131
sS'wikipedia.org'
p159
g111
sS'youtube.com'
p160
g117
sg107
(dp161
g109
F0.04
ssg29
g124
sS'facebook.com'
p162
g150
sg93
(dp163
g109
F0.01
ssg33
g126
sS'indiatimes.com'
p164
(dp165
g109
F0.005
ssg37
g128
ssg65
(dp166
g112
g154
sg107
(dp167
g109
F0.019
sssg69
(dp168
g41
g136
ssg73
(dp169
g41
g138
sg61
g165
ssg77
(dp170
g112
g146
sg61
g158
sg107
(dp171
g109
F0.012
sssg81
(dp172
g112
g147
ssg85
(dp173
S'yahoo.com'
p174
g171
sg41
g133
sS'reddit.com'
p175
g156
sS'wikipedia.org'
p176
g108
sS'youtube.com'
p177
g115
sg21
g120
sg61
g161
sg49
g143
sg65
g167
sg112
g149
sS'linkedin.com'
p178
g129
ssg89
(dp179
g41
g134
ssg93
(dp180
g61
g163
ssg97
(dp181
g41
g135
sssS'graph'
p182
(dp183
sS'adjlist_dict_factory'
p184
g102
sS'adj'
p185
g105
sb.