ccopy_reg
_reconstructor
p0
(cnetworkx.classes.graph
Graph
p1
c__builtin__
object
p2
Ntp3
Rp4
(dp5
S'node'
p6
(dp7
S'ebis.ne.jp'
p8
(dp9
S'pageviews'
p10
F3.7
sS'ilist'
p11
(lp12
I41
aI80
aI198
aI98
asS'alist'
p13
(lp14
I102
aI75
aI59
aI150
aI169
aI0
asS'name'
p15
g8
sS'reach'
p16
F0.01515
ssS'slickdeals.net'
p17
(dp18
g10
F3.97
sg11
(lp19
I31
aI73
aI182
aI159
asg13
(lp20
I98
aI98
aI102
aI113
aI77
aI91
asg15
g17
sg16
F0.3033
ssS'wikipedia.org'
p21
(dp22
g10
F3.65
sg11
(lp23
I118
aI112
aI81
aI87
asg13
(lp24
I98
aI98
aI102
aI98
aI103
aI98
asg15
g21
sg16
F9.593
ssS'flipkart.com'
p25
(dp26
g10
F8.49
sg11
(lp27
I198
aI96
aI41
aI43
asg13
(lp28
I154
aI139
aI61
aI37
aI37
aI47
asg15
g25
sg16
F0.6643
ssS'chobirich.com'
p29
(dp30
g10
F5.18
sg11
(lp31
I28
aI48
aI198
aI150
asg13
(lp32
I134
aI107
aI106
aI79
aI37
aI82
asg15
g29
sg16
F0.0175
ssS'rakuten.ne.jp'
p33
(dp34
g10
F1.78
sg11
(lp35
I43
aI80
aI128
aI198
asg13
(lp36
I45
aI67
aI151
aI181
aI198
aI58
asg15
g33
sg16
F0.1216
ssS'gendama.jp'
p37
(dp38
g10
F11.7
sg11
(lp39
I16
aI69
aI189
aI198
asg13
(lp40
I87
aI98
aI121
aI114
aI40
aI102
asg15
g37
sg16
F0.0187
ssS't.co'
p41
(dp42
g10
F2.85
sg11
(lp43
I93
aI106
aI98
aI106
asg13
(lp44
I85
aI97
aI112
aI109
aI90
aI86
asg15
g41
sg16
F2.666
ssS'usps.com'
p45
(dp46
g10
F3.1
sg11
(lp47
I43
aI87
aI150
aI143
asg13
(lp48
I77
aI87
aI98
aI126
aI130
aI125
asg15
g45
sg16
F0.3484
ssS'craigslist.org'
p49
(dp50
g10
F14.17
sg11
(lp51
I56
aI94
aI127
aI135
asg13
(lp52
I75
aI87
aI102
aI127
aI125
aI107
asg15
g49
sg16
F0.8718
ssS'gpoint.co.jp'
p53
(dp54
g10
F11.09
sg11
(lp55
I0
aI0
aI0
aI0
asg13
(lp56
I0
aI0
aI0
aI0
aI0
aI0
asg15
g53
sg16
F0.0257
ssS'gfycat.com'
p57
(dp58
g10
F3.05
sg11
(lp59
I139
aI133
aI75
aI65
asg13
(lp60
I198
aI159
aI64
aI44
aI31
aI57
asg15
g57
sg16
F0.2051
ssS'dreevee.com'
p61
(dp62
g10
F4.91
sg11
(lp63
I0
aI0
aI0
aI0
asg13
(lp64
I0
aI0
aI0
aI0
aI0
aI0
asg15
g61
sg16
F0.0363
ssS'popads.net'
p65
(dp66
g10
F2.63
sg11
(lp67
I172
aI107
aI59
aI62
asg13
(lp68
I132
aI112
aI95
aI70
aI65
aI63
asg15
g65
sg16
F0.8546
ssS'walmart.com'
p69
(dp70
g10
F5.95
sg11
(lp71
I52
aI95
aI140
aI128
asg13
(lp72
I73
aI83
aI103
aI125
aI132
aI152
asg15
g69
sg16
F0.5068
ssS'office.com'
p73
(dp74
g10
F2.79
sg11
(lp75
I106
aI112
aI83
aI98
asg13
(lp76
I85
aI98
aI105
aI102
aI110
aI94
asg15
g73
sg16
F1.423
ssS'imgur.com'
p77
(dp78
g10
F11.19
sg11
(lp79
I98
aI98
aI103
aI98
asg13
(lp80
I133
aI123
aI88
aI74
aI62
aI77
asg15
g77
sg16
F1.4246
ssS'nyaa.se'
p81
(dp82
g10
F8.68
sg11
(lp83
I198
aI141
aI21
aI33
asg13
(lp84
I198
aI113
aI61
aI17
aI15
aI9
asg15
g81
sg16
F0.1777
ssS'pixiv.net'
p85
(dp86
g10
F24.64
sg11
(lp87
I151
aI98
aI83
aI63
asg13
(lp88
I198
aI80
aI73
aI69
aI66
aI62
asg15
g85
sg16
F0.2776
ssS'ndtv.com'
p89
(dp90
g10
F2.37
sg11
(lp91
I175
aI105
aI60
aI60
asg13
(lp92
I126
aI122
aI81
aI61
aI72
aI74
asg15
g89
sg16
F0.3314
ssS'microsoft.com'
p93
(dp94
g10
F2.5
sg11
(lp95
I92
aI98
aI107
aI105
asg13
(lp96
I96
aI95
aI98
aI108
aI104
aI119
asg15
g93
sg16
F2.422
ssS'media-ad.jp'
p97
(dp98
g10
F7.74
sg11
(lp99
I0
aI0
aI0
aI0
asg13
(lp100
I0
aI0
aI0
aI0
aI0
aI0
asg15
g97
sg16
F0.0167
ssS'panasonic.jp'
p101
(dp102
g10
F9.59
sg11
(lp103
I48
aI137
aI134
aI121
asg13
(lp104
I24
aI36
aI198
aI198
aI198
aI0
asg15
g101
sg16
F0.0763
ssS'fenrir-inc.com'
p105
(dp106
g10
F6.87
sg11
(lp107
I23
aI198
aI167
aI44
asg13
(lp108
I27
aI45
aI198
aI114
aI0
aI0
asg15
g105
sg16
F0.00982
ssS'taboola.com'
p109
(dp110
g10
F1.51
sg11
(lp111
I66
aI94
aI121
aI128
asg13
(lp112
I69
aI79
aI105
aI126
aI150
aI175
asg15
g109
sg16
F0.6075
ssS'd-moneymall.jp'
p113
(dp114
g10
F2.24
sg11
(lp115
I0
aI0
aI0
aI0
asg13
(lp116
I0
aI0
aI0
aI0
aI0
aI0
asg15
g113
sg16
F0.00473
ssS'google.fr'
p117
(dp118
g10
F9.61
sg11
(lp119
I126
aI151
aI74
aI57
asg13
(lp120
I90
aI105
aI119
aI93
aI65
aI97
asg15
g117
sg16
F1.8606
ssS'kakaku.com'
p121
(dp122
g10
F7.02
sg11
(lp123
I42
aI95
aI171
aI142
asg13
(lp124
I50
aI73
aI157
aI149
aI138
aI98
asg15
g121
sg16
F0.41
ssS'homepage-web.com'
p125
(dp126
g10
F1.09
sg11
(lp127
I96
aI168
aI92
aI59
asg13
(lp128
I93
aI144
aI48
aI90
aI158
aI141
asg15
g125
sg16
F0.1256
ssS'google.co.jp'
p129
(dp130
g10
F13.77
sg11
(lp131
I54
aI129
aI107
aI143
asg13
(lp132
I54
aI75
aI159
aI155
aI104
aI85
asg15
g129
sg16
F3.306
ssS'ad-link.jp'
p133
(dp134
g10
F3.68
sg11
(lp135
I0
aI0
aI0
aI0
asg13
(lp136
I0
aI0
aI0
aI0
aI0
aI0
asg15
g133
sg16
F0.0231
ssS'pex.jp'
p137
(dp138
g10
F11.16
sg11
(lp139
I0
aI0
aI139
aI198
asg13
(lp140
I0
aI62
aI198
aI0
aI0
aI0
asg15
g137
sg16
F0.037
ssS'gamefactory.jp'
p141
(dp142
g10
F6.07
sg11
(lp143
I0
aI0
aI0
aI0
asg13
(lp144
I0
aI0
aI0
aI0
aI0
aI0
asg15
g141
sg16
F0.0494
ssS'amazon.com'
p145
(dp146
g10
F12.31
sg11
(lp147
I82
aI102
aI103
aI117
asg13
(lp148
I76
aI90
aI102
aI114
aI129
aI141
asg15
g145
sg16
F7.484
ssS'google.com.mx'
p149
(dp150
g10
F8.14
sg11
(lp151
I106
aI89
aI102
aI106
asg13
(lp152
I88
aI109
aI109
aI82
aI92
aI121
asg15
g149
sg16
F1.324
ssS'pinterest.com'
p153
(dp154
g10
F5.46
sg11
(lp155
I79
aI97
aI116
aI112
asg13
(lp156
I84
aI98
aI108
aI111
aI98
aI96
asg15
g153
sg16
F2.223
ssS'instagram.com'
p157
(dp158
g10
F7.58
sg11
(lp159
I91
aI98
aI105
aI106
asg13
(lp160
I112
aI117
aI98
aI85
aI62
aI65
asg15
g157
sg16
F2.795
ssS'kingsoft.jp'
p161
(dp162
g10
F2.25
sg11
(lp163
I51
aI141
aI117
aI104
asg13
(lp164
I43
aI64
aI150
aI164
aI0
aI0
asg15
g161
sg16
F0.0181
ssS'shufoo.net'
p165
(dp166
g10
F4.64
sg11
(lp167
I35
aI72
aI192
aI148
asg13
(lp168
I81
aI80
aI109
aI155
aI98
aI96
asg15
g165
sg16
F0.0564
ssS'biglobe.ne.jp'
p169
(dp170
g10
F3.37
sg11
(lp171
I58
aI164
aI139
aI76
asg13
(lp172
I34
aI49
aI198
aI151
aI118
aI0
asg15
g169
sg16
F0.1524
ssS'livedoor.com'
p173
(dp174
g10
F6.75
sg11
(lp175
I62
aI94
aI139
aI127
asg13
(lp176
I72
aI74
aI145
aI132
aI108
aI119
asg15
g173
sg16
F0.1774
ssS'ppls.jp'
p177
(dp178
g10
F1.75
sg11
(lp179
I0
aI0
aI0
aI0
asg13
(lp180
I0
aI0
aI0
aI0
aI0
aI0
asg15
g177
sg16
F0.01127
ssS'amazon.in'
p181
(dp182
g10
F10.6
sg11
(lp183
I198
aI95
aI44
aI48
asg13
(lp184
I143
aI135
aI68
aI42
aI46
aI57
asg15
g181
sg16
F0.8507
ssS'google.co.in'
p185
(dp186
g10
F13.62
sg11
(lp187
I198
aI96
aI35
aI37
asg13
(lp188
I167
aI125
aI64
aI39
aI37
aI37
asg15
g185
sg16
F5.362
ssS'msn.com'
p189
(dp190
g10
F4.23
sg11
(lp191
I86
aI94
aI113
aI111
asg13
(lp192
I88
aI96
aI98
aI115
aI108
aI110
asg15
g189
sg16
F4.411
ssS'ebay.com'
p193
(dp194
g10
F12.57
sg11
(lp195
I84
aI104
aI107
aI109
asg13
(lp196
I74
aI90
aI106
aI118
aI122
aI129
asg15
g193
sg16
F2.177
ssS'live.com'
p197
(dp198
g10
F3.8
sg11
(lp199
I107
aI107
aI91
aI94
asg13
(lp200
I95
aI103
aI103
aI98
aI94
aI94
asg15
g197
sg16
F6.605
ssS'dmm.co.jp'
p201
(dp202
g10
F10.84
sg11
(lp203
I69
aI96
aI120
aI129
asg13
(lp204
I75
aI93
aI133
aI115
aI69
aI95
asg15
g201
sg16
F0.4278
ssS'thehindu.com'
p205
(dp206
g13
(lp207
I116
aI128
aI75
aI63
aI93
aI75
asg10
F2.36
sg11
(lp208
I181
aI106
aI58
aI58
asg15
g205
sg16
F0.128
ssS'supermm.jp'
p209
(dp210
g10
F9.7
sg11
(lp211
I0
aI0
aI0
aI0
asg13
(lp212
I0
aI0
aI198
aI0
aI0
aI0
asg15
g209
sg16
F0.0022
ssS'etsy.com'
p213
(dp214
g10
F9.06
sg11
(lp215
I60
aI93
aI132
aI127
asg13
(lp216
I86
aI98
aI106
aI108
aI95
aI98
asg15
g213
sg16
F0.4569
ssS'dmm.com'
p217
(dp218
g10
F4.35
sg11
(lp219
I73
aI117
aI103
aI118
asg13
(lp220
I67
aI102
aI113
aI142
aI65
aI85
asg15
g217
sg16
F0.2196
ssS'rakuten-card.co.jp'
p221
(dp222
g10
F4.79
sg11
(lp223
I44
aI71
aI174
aI146
asg13
(lp224
I107
aI111
aI97
aI98
aI65
aI45
asg15
g221
sg16
F0.0826
ssS'twitter.com'
p225
(dp226
g10
F5.25
sg11
(lp227
I89
aI98
aI106
aI109
asg13
(lp228
I91
aI98
aI107
aI106
aI95
aI93
asg15
g225
sg16
F6.573
ssS'google.de'
p229
(dp230
g10
F9.08
sg11
(lp231
I66
aI162
aI110
aI88
asg13
(lp232
I66
aI83
aI130
aI135
aI97
aI68
asg15
g229
sg16
F2.3535
ssS'discas.net'
p233
(dp234
g10
F2.66
sg11
(lp235
I35
aI86
aI198
aI128
asg13
(lp236
I68
aI83
aI127
aI161
aI88
aI0
asg15
g233
sg16
F0.0261
ssS'yahoo.com'
p237
(dp238
g10
F6.97
sg11
(lp239
I80
aI94
aI120
aI113
asg13
(lp240
I97
aI96
aI102
aI105
aI102
aI112
asg15
g237
sg16
F10.908
ssS'gmo.jp'
p241
(dp242
g10
F7.27
sg11
(lp243
I32
aI90
aI136
aI195
asg13
(lp244
I77
aI72
aI145
aI149
aI60
aI103
asg15
g241
sg16
F0.01068
ssS'potora.jp'
p245
(dp246
g10
F17.8
sg11
(lp247
I0
aI0
aI0
aI0
asg13
(lp248
I0
aI0
aI0
aI0
aI0
aI0
asg15
g245
sg16
F0.015
ssS'dreammail.jp'
p249
(dp250
g10
F8.09
sg11
(lp251
I0
aI0
aI0
aI0
asg13
(lp252
I0
aI0
aI0
aI0
aI0
aI0
asg15
g249
sg16
F0.0198
ssS'pointservice.com'
p253
(dp254
g10
F12.6
sg11
(lp255
I0
aI0
aI0
aI0
asg13
(lp256
I0
aI0
aI0
aI0
aI0
aI0
asg15
g253
sg16
F0.00864
ssS'research-panel.jp'
p257
(dp258
g10
F2.1
sg11
(lp259
I36
aI68
aI190
aI146
asg13
(lp260
I96
aI91
aI113
aI132
aI51
aI58
asg15
g257
sg16
F0.0438
ssS'indianexpress.com'
p261
(dp262
g10
F2.37
sg11
(lp263
I188
aI108
aI51
aI57
asg13
(lp264
I119
aI123
aI77
aI63
aI92
aI72
asg15
g261
sg16
F0.1634
ssS'wikiwiki.jp'
p265
(dp266
g10
F5.27
sg11
(lp267
I47
aI65
aI198
aI111
asg13
(lp268
I80
aI97
aI98
aI148
aI67
aI98
asg15
g265
sg16
F0.14
ssS'fruitmail.net'
p269
(dp270
g10
F10.59
sg11
(lp271
I34
aI64
aI163
aI182
asg13
(lp272
I125
aI97
aI91
aI111
aI70
aI70
asg15
g269
sg16
F0.0153
ssS'ponta.jp'
p273
(dp274
g10
F6.13
sg11
(lp275
I73
aI0
aI198
aI0
asg13
(lp276
I0
aI49
aI0
aI0
aI0
aI0
asg15
g273
sg16
F0.0264
ssS'nukineta-heaven.com'
p277
(dp278
g10
F1.48
sg11
(lp279
I0
aI0
aI0
aI0
asg13
(lp280
I0
aI0
aI0
aI0
aI0
aI0
asg15
g277
sg16
F0.00178
ssS'indiatimes.com'
p281
(dp282
g10
F4.82
sg11
(lp283
I180
aI105
aI57
aI61
asg13
(lp284
I121
aI121
aI80
aI62
aI90
aI102
asg15
g281
sg16
F0.6589
ssS'paypal.com'
p285
(dp286
g10
F4.74
sg11
(lp287
I91
aI107
aI98
aI104
asg13
(lp288
I67
aI87
aI114
aI123
aI117
aI124
asg15
g285
sg16
F1.883
ssS'so-net.ne.jp'
p289
(dp290
g10
F3.34
sg11
(lp291
I60
aI149
aI115
aI106
asg13
(lp292
I21
aI50
aI198
aI153
aI198
aI102
asg15
g289
sg16
F0.1647
ssS'vk.com'
p293
(dp294
g10
F15.07
sg11
(lp295
I176
aI91
aI62
aI68
asg13
(lp296
I108
aI129
aI95
aI78
aI58
aI52
asg15
g293
sg16
F2.645
ssS'warau.jp'
p297
(dp298
g10
F24.9
sg11
(lp299
I0
aI0
aI0
aI0
asg13
(lp300
I0
aI0
aI0
aI0
aI0
aI0
asg15
g297
sg16
F0.01532
ssS'outbrain.com'
p301
(dp302
g10
F1.65
sg11
(lp303
I70
aI105
aI115
aI119
asg13
(lp304
I63
aI76
aI114
aI129
aI145
aI156
asg15
g301
sg16
F1.3504
ssS'nicovideo.jp'
p305
(dp306
g10
F17.07
sg11
(lp307
I79
aI94
aI125
aI111
asg13
(lp308
I122
aI80
aI111
aI107
aI87
aI98
asg15
g305
sg16
F0.8203
ssS'youtube.com'
p309
(dp310
g10
F13.14
sg11
(lp311
I115
aI108
aI86
aI89
asg13
(lp312
I92
aI97
aI107
aI102
aI103
aI102
asg15
g309
sg16
F35.863
ssS'tsite.jp'
p313
(dp314
g10
F5.1
sg11
(lp315
I68
aI198
aI96
aI58
asg13
(lp316
I60
aI80
aI190
aI111
aI57
aI0
asg15
g313
sg16
F0.1234
ssS'rakuten.co.jp'
p317
(dp318
g10
F11.7
sg11
(lp319
I57
aI97
aI127
aI146
asg13
(lp320
I61
aI84
aI134
aI138
aI117
aI95
asg15
g317
sg16
F0.9809
ssS'stackoverflow.com'
p321
(dp322
g10
F4.36
sg11
(lp323
I111
aI102
aI95
aI91
asg13
(lp324
I108
aI123
aI96
aI80
aI63
aI64
asg15
g321
sg16
F1.635
ssS'netmile.co.jp'
p325
(dp326
g10
F7.99
sg11
(lp327
I0
aI0
aI0
aI0
asg13
(lp328
I0
aI0
aI0
aI0
aI0
aI0
asg15
g325
sg16
F0.01213
ssS'absoluteclickscom.com'
p329
(dp330
g10
F2.64
sg11
(lp331
I198
aI98
aI39
aI41
asg13
(lp332
I120
aI126
aI98
aI51
aI42
aI77
asg15
g329
sg16
F0.1121
ssS'linkedin.com'
p333
(dp334
g10
F6.26
sg11
(lp335
I83
aI98
aI103
aI119
asg13
(lp336
I73
aI95
aI109
aI116
aI112
aI108
asg15
g333
sg16
F3.599
ssS'ecnavi.jp'
p337
(dp338
g10
F15.42
sg11
(lp339
I21
aI88
aI162
aI182
asg13
(lp340
I81
aI75
aI152
aI110
aI76
aI123
asg15
g337
sg16
F0.0659
ssS'yahoo.co.jp'
p341
(dp342
g10
F16.75
sg11
(lp343
I59
aI106
aI118
aI142
asg13
(lp344
I59
aI71
aI162
aI141
aI122
aI74
asg15
g341
sg16
F3.078
ssS'bing.com'
p345
(dp346
g10
F3.15
sg11
(lp347
I49
aI79
aI161
aI140
asg13
(lp348
I98
aI90
aI102
aI116
aI98
aI114
asg15
g345
sg16
F4.722
ssS'pointkodukai.com'
p349
(dp350
g10
F1.41
sg11
(lp351
I0
aI0
aI0
aI0
asg13
(lp352
I0
aI0
aI0
aI0
aI0
aI0
asg15
g349
sg16
F0.00597
ssS'a-q-f.com'
p353
(dp354
g10
F6.37
sg11
(lp355
I5
aI70
aI198
aI74
asg13
(lp356
I25
aI24
aI198
aI94
aI0
aI0
asg15
g353
sg16
F0.0322
ssS'google.co.uk'
p357
(dp358
g10
F10.26
sg11
(lp359
I124
aI131
aI77
aI74
asg13
(lp360
I89
aI91
aI104
aI118
aI107
aI93
asg15
g357
sg16
F2.0162
ssS'tsutaya-adult.com'
p361
(dp362
g10
F9.83
sg11
(lp363
I0
aI0
aI0
aI0
asg13
(lp364
I0
aI0
aI0
aI0
aI0
aI0
asg15
g361
sg16
F0.00927
ssS'recruit.co.jp'
p365
(dp366
g10
F2.91
sg11
(lp367
I24
aI121
aI198
aI98
asg13
(lp368
I16
aI38
aI198
aI198
aI25
aI0
asg15
g365
sg16
F0.048
ssS'aeon.jp'
p369
(dp370
g10
F2.49
sg11
(lp371
I43
aI191
aI179
aI0
asg13
(lp372
I0
aI20
aI166
aI198
aI0
aI0
asg15
g369
sg16
F0.00577
ssS'facebook.com'
p373
(dp374
g10
F10.89
sg11
(lp375
I91
aI98
aI108
aI105
asg13
(lp376
I95
aI96
aI107
aI104
aI98
aI98
asg15
g373
sg16
F35.296
ssS'omni7.jp'
p377
(dp378
g10
F4.06
sg11
(lp379
I0
aI0
aI0
aI0
asg13
(lp380
I0
aI0
aI0
aI0
aI0
aI0
asg15
g377
sg16
F0.0404
ssS'dietnavi.com'
p381
(dp382
g10
F12.55
sg11
(lp383
I29
aI60
aI198
aI144
asg13
(lp384
I91
aI86
aI134
aI103
aI68
aI111
asg15
g381
sg16
F0.0177
ssS'anitube.se'
p385
(dp386
g10
F6.1
sg11
(lp387
I198
aI153
aI0
aI17
asg13
(lp388
I91
aI49
aI65
aI198
aI0
aI0
asg15
g385
sg16
F0.0982
ssS'lifemedia.jp'
p389
(dp390
g10
F7.07
sg11
(lp391
I0
aI0
aI0
aI0
asg13
(lp392
I0
aI0
aI0
aI0
aI0
aI0
asg15
g389
sg16
F0.0218
ssS'reddit.com'
p393
(dp394
g10
F9.37
sg11
(lp395
I86
aI95
aI112
aI109
asg13
(lp396
I123
aI113
aI93
aI86
aI69
aI78
asg15
g393
sg16
F2.066
ssS'fc2.com'
p397
(dp398
g10
F6.08
sg11
(lp399
I102
aI107
aI97
aI94
asg13
(lp400
I95
aI90
aI119
aI105
aI98
aI69
asg15
g397
sg16
F1.3777
ssS'google.com'
p401
(dp402
g10
F18.08
sg11
(lp403
I95
aI98
aI104
aI103
asg13
(lp404
I98
aI98
aI102
aI98
aI98
aI102
asg15
g401
sg16
F42.144
ssS'amazon.co.jp'
p405
(dp406
g10
F14.91
sg11
(lp407
I62
aI114
aI121
aI125
asg13
(lp408
I48
aI83
aI149
aI137
aI123
aI88
asg15
g405
sg16
F1.946
ssS'pointtown.com'
p409
(dp410
g10
F22.9
sg11
(lp411
I25
aI62
aI198
aI154
asg13
(lp412
I121
aI85
aI87
aI127
aI87
aI120
asg15
g409
sg16
F0.0288
ssS'infoseek.co.jp'
p413
(dp414
g10
F9.58
sg11
(lp415
I30
aI97
aI184
aI138
asg13
(lp416
I87
aI85
aI108
aI124
aI123
aI96
asg15
g413
sg16
F0.1053
sssS'node_dict_factory'
p417
c__builtin__
dict
p418
sS'edge_attr_dict_factory'
p419
g418
sS'edge'
p420
(dp421
g8
(dp422
g337
(dp423
S'weight'
p424
F0.019
sssg17
(dp425
S'ebay.com'
p426
(dp427
g424
F0.006999999999999999
ssS'amazon.com'
p428
(dp429
g424
F0.006
sssg21
(dp430
S'yahoo.com'
p431
(dp432
g424
F0.011
ssg205
(dp433
g424
F0.013000000000000001
ssS'bing.com'
p434
(dp435
g424
F0.022
ssS'yahoo.co.jp'
p436
(dp437
g424
F0.012
ssS'youtube.com'
p438
(dp439
g424
F0.0175
ssS'google.com'
p440
(dp441
g424
F0.156
ssS'reddit.com'
p442
(dp443
g424
F0.013999999999999999
ssg185
(dp444
g424
F0.018000000000000002
ssS'google.co.uk'
p445
(dp446
g424
F0.023
ssg117
(dp447
g424
F0.017
ssg129
(dp448
g424
F0.027000000000000003
ssS'google.de'
p449
(dp450
g424
F0.033
ssS'facebook.com'
p451
(dp452
g424
F0.012
sssg25
(dp453
g185
(dp454
g424
F0.006999999999999999
sssg29
(dp455
g133
(dp456
g424
F0.027999999999999997
sssg33
(dp457
S'yahoo.co.jp'
p458
(dp459
g424
F0.059000000000000004
ssS'youtube.com'
p460
(dp461
g424
F0.006
ssS'google.com'
p462
(dp463
g424
F0.025
ssS'live.com'
p464
(dp465
g424
F0.006
ssS'amazon.co.jp'
p466
(dp467
g424
F0.02
ssS'rakuten.co.jp'
p468
(dp469
g424
F0.29800000000000004
ssS'google.co.jp'
p470
(dp471
g424
F0.092
ssS'infoseek.co.jp'
p472
(dp473
g424
F0.01
ssS'facebook.com'
p474
(dp475
g424
F0.005
ssg105
(dp476
g424
F0.006
sssg37
(dp477
S'dreevee.com'
p478
(dp479
g424
F0.022000000000000002
ssg133
(dp480
g424
F0.027999999999999997
sssg41
(dp481
S'yahoo.com'
p482
(dp483
g424
F0.005
ssS'nicovideo.jp'
p484
(dp485
g424
F0.015500000000000002
ssS'yahoo.co.jp'
p486
(dp487
g424
F0.006999999999999999
ssS'instagram.com'
p488
(dp489
g424
F0.045
ssS'youtube.com'
p490
(dp491
g424
F0.028999999999999998
ssS'google.com'
p492
(dp493
g424
F0.047
ssS'reddit.com'
p494
(dp495
g424
F0.006
ssS'twitter.com'
p496
(dp497
g424
F0.16650000000000004
ssg65
(dp498
g424
F0.011000000000000001
ssS'facebook.com'
p499
(dp500
g424
F0.057
sssg45
(dp501
g285
(dp502
g424
F0.006
sssg49
(dp503
g426
(dp504
g424
F0.013000000000000001
sssg53
(dp505
g141
(dp506
g424
F0.052
ssS'yahoo.co.jp'
p507
(dp508
g424
F0.039
ssS'rakuten.co.jp'
p509
(dp510
g424
F0.031
ssg253
(dp511
g424
F0.022000000000000002
ssg169
(dp512
g424
F0.023
ssg61
(dp513
g424
F0.029500000000000002
ssg97
(dp514
g424
F0.046
ssg472
(dp515
g424
F0.025
ssg377
(dp516
g424
F0.04
ssS'google.co.jp'
p517
(dp518
g424
F0.023
sssg57
(dp519
g442
(dp520
g424
F0.02
sssg61
(dp521
g337
(dp522
g424
F0.1195
ssg273
(dp523
g424
F0.055
ssg389
(dp524
g424
F0.021
ssS'pex.jp'
p525
(dp526
g424
F0.0385
ssg53
g513
sg353
(dp527
g424
F0.034
ssg37
g479
sS'warau.jp'
p528
(dp529
g424
F0.02
ssS'fruitmail.net'
p530
(dp531
g424
F0.022000000000000002
ssS'dietnavi.com'
p532
(dp533
g424
F0.027000000000000003
sssg65
(dp534
S't.co'
p535
g498
ssg69
(dp536
g428
(dp537
g424
F0.006999999999999999
sssg73
(dp538
S'live.com'
p539
(dp540
g424
F0.01
sssg77
(dp541
g442
(dp542
g424
F0.085
sssg81
(dp543
S'dmm.co.jp'
p544
(dp545
g424
F0.019
sssg85
(dp546
g484
(dp547
g424
F0.02
sssg89
(dp548
g205
(dp549
g424
F0.01
sssg93
(dp550
g539
(dp551
g424
F0.021
ssg434
(dp552
g424
F0.004
sssg97
(dp553
g273
(dp554
g424
F0.021
ssg53
g514
ssg101
(dp555
g141
(dp556
g424
F0.038
sssg105
(dp557
g33
g476
ssg109
(dp558
S'msn.com'
p559
(dp560
g424
F0.006999999999999999
sssg113
(dp561
g165
(dp562
g424
F0.018000000000000002
sssg117
(dp563
S'wikipedia.org'
p564
g447
ssg121
(dp565
S'amazon.co.jp'
p566
(dp567
g424
F0.016
ssg468
(dp568
g424
F0.013999999999999999
sssg125
(dp569
g434
(dp570
g424
F0.011000000000000001
sssg129
(dp571
g273
(dp572
g424
F0.027000000000000003
ssg305
(dp573
g424
F0.0665
ssg397
(dp574
g424
F0.016
ssS'dmm.com'
p575
(dp576
g424
F0.098
ssg436
(dp577
g424
F0.0665
ssg564
g448
sS'youtube.com'
p578
(dp579
g424
F0.027000000000000003
ssS'google.com'
p580
(dp581
g424
F0.023
ssg53
g518
sg405
(dp582
g424
F0.08549999999999999
ssg317
(dp583
g424
F0.07050000000000001
ssg33
g471
sg165
(dp584
g424
F0.034
ssS'twitter.com'
p585
(dp586
g424
F0.013999999999999999
ssg361
(dp587
g424
F0.019
ssg233
(dp588
g424
F0.027999999999999997
ssg472
(dp589
g424
F0.038
ssS'facebook.com'
p590
(dp591
g424
F0.011000000000000001
ssg544
(dp592
g424
F0.15
ssS'tsite.jp'
p593
(dp594
g424
F0.081
ssg525
(dp595
g424
F0.018000000000000002
sssg133
(dp596
g273
(dp597
g424
F0.239
ssg241
(dp598
g424
F0.035
ssg29
g456
sg593
(dp599
g424
F0.0405
ssg245
(dp600
g424
F0.043
ssS'gamefactory.jp'
p601
(dp602
g424
F0.028999999999999998
ssS'a-q-f.com'
p603
(dp604
g424
F0.031
ssS'gendama.jp'
p605
g480
sg289
(dp606
g424
F0.018000000000000002
ssS'yahoo.co.jp'
p607
(dp608
g424
F0.109
sssg137
(dp609
g337
(dp610
g424
F0.066
ssg141
(dp611
g424
F0.049
ssg593
(dp612
g424
F0.013999999999999999
ssS'yahoo.co.jp'
p613
(dp614
g424
F0.05
ssS'google.com'
p615
(dp616
g424
F0.021
ssg349
(dp617
g424
F0.024
ssS'rakuten.co.jp'
p618
(dp619
g424
F0.037000000000000005
ssg165
(dp620
g424
F0.1495
ssS'pointtown.com'
p621
(dp622
g424
F0.02
ssg478
g526
sS'google.co.jp'
p623
g595
ssg141
(dp624
g337
(dp625
g424
F0.126
ssg273
(dp626
g424
F0.032
ssg137
g611
sg53
g506
sg313
(dp627
g424
F0.107
ssg133
g602
sg325
(dp628
g424
F0.038
ssg249
(dp629
g424
F0.064
ssg101
g556
sg165
(dp630
g424
F0.013999999999999999
ssg297
(dp631
g424
F0.040999999999999995
ssg269
(dp632
g424
F0.027000000000000003
ssg381
(dp633
g424
F0.04
sssg145
(dp634
g431
(dp635
g424
F0.021500000000000002
ssg559
(dp636
g424
F0.006999999999999999
ssS'bing.com'
p637
(dp638
g424
F0.0075
ssg17
g429
sS'reddit.com'
p639
(dp640
g424
F0.009000000000000001
ssg438
(dp641
g424
F0.02
ssg440
(dp642
g424
F0.1205
ssS'live.com'
p643
(dp644
g424
F0.0125
ssg285
(dp645
g424
F0.011000000000000001
ssg69
g537
sg451
(dp646
g424
F0.0325
ssg426
(dp647
g424
F0.045500000000000006
sssg149
(dp648
g539
(dp649
g424
F0.008
sssg153
(dp650
g488
(dp651
g424
F0.006999999999999999
sssg157
(dp652
S'yahoo.com'
p653
(dp654
g424
F0.009000000000000001
ssg153
g651
sg442
(dp655
g424
F0.0135
ssS'youtube.com'
p656
(dp657
g424
F0.055
ssS'google.com'
p658
(dp659
g424
F0.127
ssg496
(dp660
g424
F0.0325
ssg535
g489
sS'google.co.uk'
p661
(dp662
g424
F0.006
ssg451
(dp663
g424
F0.07
ssg293
(dp664
g424
F0.008
sssg161
(dp665
g472
(dp666
g424
F0.016
sssg165
(dp667
g337
(dp668
g424
F0.17
ssS'gamefactory.jp'
p669
g630
sg113
g562
sS'yahoo.co.jp'
p670
(dp671
g424
F0.045
ssS'google.com'
p672
(dp673
g424
F0.013999999999999999
ssg525
g620
sS'rakuten.co.jp'
p674
(dp675
g424
F0.013000000000000001
ssS'google.co.jp'
p676
g584
sg369
(dp677
g424
F0.012
ssS'dietnavi.com'
p678
(dp679
g424
F0.012
sssg169
(dp680
g53
g512
ssg173
(dp681
g472
(dp682
g424
F0.015
sssg177
(dp683
g273
(dp684
g424
F0.084
sssg181
(dp685
g185
(dp686
g424
F0.01
sssg185
(dp687
g237
(dp688
g424
F0.009000000000000001
ssg205
(dp689
g424
F0.24
ssS'wikipedia.org'
p690
g444
sS'youtube.com'
p691
(dp692
g424
F0.031
ssg440
(dp693
g424
F0.04
ssg321
(dp694
g424
F0.006
ssS'facebook.com'
p695
(dp696
g424
F0.0235
ssg181
g686
sg25
g454
sS'indiatimes.com'
p697
(dp698
g424
F0.005
ssg333
(dp699
g424
F0.006999999999999999
sssg189
(dp700
g431
(dp701
g424
F0.012
ssg434
(dp702
g424
F0.044
ssg341
(dp703
g424
F0.005
ssS'youtube.com'
p704
(dp705
g424
F0.049
ssS'google.com'
p706
(dp707
g424
F0.054000000000000006
ssg539
(dp708
g424
F0.11599999999999999
ssg109
g560
sS'amazon.com'
p709
g636
sS'facebook.com'
p710
(dp711
g424
F0.071
ssS'outbrain.com'
p712
(dp713
g424
F0.011000000000000001
sssg193
(dp714
g431
(dp715
g424
F0.018
ssS'bing.com'
p716
(dp717
g424
F0.01
ssS'slickdeals.net'
p718
g427
sg49
g504
sS'youtube.com'
p719
(dp720
g424
F0.025
ssg440
(dp721
g424
F0.109
ssS'live.com'
p722
(dp723
g424
F0.011000000000000001
ssg285
(dp724
g424
F0.031
ssg428
g647
sS'facebook.com'
p725
(dp726
g424
F0.042
sssg197
(dp727
g431
(dp728
g424
F0.0115
ssg559
g708
sS'bing.com'
p729
(dp730
g424
F0.0135
ssS'youtube.com'
p731
(dp732
g424
F0.027999999999999997
ssg426
g723
sg149
g649
sg33
g465
sg93
g551
sg285
(dp733
g424
F0.011000000000000001
ssg428
g644
sg451
(dp734
g424
F0.047
ssg73
g540
sS'google.com'
p735
(dp736
g424
F0.086
sssg201
(dp737
S'nicovideo.jp'
p738
(dp739
g424
F0.021
ssS'fc2.com'
p740
(dp741
g424
F0.032
ssg81
g545
sS'yahoo.co.jp'
p742
(dp743
g424
F0.064
ssS'youtube.com'
p744
(dp745
g424
F0.022000000000000002
ssS'google.com'
p746
(dp747
g424
F0.019
ssg575
(dp748
g424
F0.08549999999999999
ssS'twitter.com'
p749
(dp750
g424
F0.015
ssg361
(dp751
g424
F0.038
ssS'google.co.jp'
p752
g592
sS'amazon.co.jp'
p753
(dp754
g424
F0.021
ssg233
(dp755
g424
F0.008
sssg205
(dp756
g185
g689
sg393
(dp757
g424
F0.013999999999999999
ssg21
g433
sg309
(dp758
g424
F0.018000000000000002
ssg401
(dp759
g424
F0.12300000000000001
ssg89
g549
sg301
(dp760
g424
F0.027000000000000003
ssg261
(dp761
g424
F0.01
ssg373
(dp762
g424
F0.062
ssg281
(dp763
g424
F0.026000000000000002
sssg209
(dp764
g361
(dp765
g424
F0.027000000000000003
sssg213
(dp766
g285
(dp767
g424
F0.009000000000000001
sssg217
(dp768
g484
(dp769
g424
F0.06
ssS'fc2.com'
p770
(dp771
g424
F0.017
ssS'yahoo.co.jp'
p772
(dp773
g424
F0.06
ssS'youtube.com'
p774
(dp775
g424
F0.038
ssS'google.com'
p776
(dp777
g424
F0.037000000000000005
ssS'amazon.co.jp'
p778
(dp779
g424
F0.025
ssg544
g748
sS'twitter.com'
p780
(dp781
g424
F0.044000000000000004
ssS'google.co.jp'
p782
g576
sg265
(dp783
g424
F0.018000000000000002
ssg233
(dp784
g424
F0.006
sssg221
(dp785
g468
(dp786
g424
F0.016
sssg225
(dp787
S'yahoo.com'
p788
(dp789
g424
F0.009000000000000001
ssg484
(dp790
g424
F0.057
ssg575
g781
sg436
(dp791
g424
F0.012
ssS'instagram.com'
p792
g660
sg438
(dp793
g424
F0.0275
ssg440
(dp794
g424
F0.061
ssS'reddit.com'
p795
(dp796
g424
F0.020000000000000004
ssg566
(dp797
g424
F0.017
ssg544
g750
sg535
g497
sg129
g586
sg451
(dp798
g424
F0.053
ssS'linkedin.com'
p799
(dp800
g424
F0.009000000000000001
sssg229
(dp801
g564
g450
sg438
(dp802
g424
F0.01
sssg233
(dp803
S'fc2.com'
p804
(dp805
g424
F0.006999999999999999
ssg217
g784
sS'yahoo.co.jp'
p806
(dp807
g424
F0.071
ssS'youtube.com'
p808
(dp809
g424
F0.01
ssS'google.com'
p810
(dp811
g424
F0.013999999999999999
ssg593
(dp812
g424
F0.3295
ssS'amazon.co.jp'
p813
(dp814
g424
F0.017
ssg201
g755
sg361
(dp815
g424
F0.18
ssS'google.co.jp'
p816
g588
ssg237
(dp817
g189
g701
sg185
g688
sS'bing.com'
p818
(dp819
g424
F0.0105
ssS'wikipedia.org'
p820
g432
sg438
(dp821
g424
F0.020000000000000004
ssg440
(dp822
g424
F0.058499999999999996
ssS'live.com'
p823
g728
sg488
g654
sg285
(dp824
g424
F0.016
ssg496
g789
sg535
g483
sg428
g635
sg451
(dp825
g424
F0.0415
ssS'ebay.com'
p826
g715
sS'linkedin.com'
p827
(dp828
g424
F0.005
sssg241
(dp829
g133
g598
ssg245
(dp830
g133
g600
ssg249
(dp831
g141
g629
ssg253
(dp832
g53
g511
ssg257
(dp833
g337
(dp834
g424
F0.052000000000000005
sssg261
(dp835
g205
g761
ssg265
(dp836
g575
g783
ssg269
(dp837
g141
g632
sg478
g531
ssg273
(dp838
S'gamefactory.jp'
p839
g626
sS'yahoo.co.jp'
p840
(dp841
g424
F0.043
ssS'google.com'
p842
(dp843
g424
F0.024
ssS'tsite.jp'
p844
(dp845
g424
F0.025
ssg133
g597
sg478
g523
sS'google.co.jp'
p846
g572
sg177
g684
sg365
(dp847
g424
F0.141
ssS'media-ad.jp'
p848
g554
ssg277
(dp849
g361
(dp850
g424
F0.01
sssg281
(dp851
g205
g763
sg185
g698
ssg285
(dp852
S'yahoo.com'
p853
g824
sg213
g767
sS'youtube.com'
p854
(dp855
g424
F0.012
ssg426
g724
sg539
g733
sg357
(dp856
g424
F0.006999999999999999
ssg45
g502
sS'amazon.com'
p857
g645
sS'facebook.com'
p858
(dp859
g424
F0.036000000000000004
ssS'google.com'
p860
(dp861
g424
F0.135
sssg289
(dp862
g133
g606
ssg293
(dp863
g488
g664
ssg297
(dp864
g141
g631
sg478
g529
ssg301
(dp865
g559
g713
sg205
g760
ssg305
(dp866
S'fc2.com'
p867
(dp868
g424
F0.026000000000000002
ssg436
(dp869
g424
F0.030500000000000003
ssS'youtube.com'
p870
(dp871
g424
F0.065
ssS'google.com'
p872
(dp873
g424
F0.016
ssg575
g769
sg544
g739
sg496
g790
sg41
g485
sg129
g573
sg329
(dp874
g424
F0.013999999999999999
ssg85
g547
sg566
(dp875
g424
F0.0195
sssg309
(dp876
g559
g705
sg484
g871
sS'wikipedia.org'
p877
g439
sg426
g720
sg539
g732
sg468
(dp878
g424
F0.013999999999999999
ssg544
g745
sg205
g758
sS'bing.com'
p879
(dp880
g424
F0.023500000000000004
ssg436
(dp881
g424
F0.027000000000000003
ssg575
g775
sg33
g461
sg451
(dp882
g424
F0.0775
ssS'twitter.com'
p883
g793
sg535
g491
sg229
g802
sg233
g809
sS'reddit.com'
p884
(dp885
g424
F0.037
ssg185
g692
sS'amazon.com'
p886
g641
sg431
g821
sg488
g657
sg440
(dp887
g424
F0.10750000000000001
ssg566
(dp888
g424
F0.035
ssg285
g855
sg129
g579
sg472
(dp889
g424
F0.013000000000000001
sssg313
(dp890
g273
g845
sg133
g599
sS'yahoo.co.jp'
p891
(dp892
g424
F0.16699999999999998
ssS'google.com'
p893
(dp894
g424
F0.044000000000000004
ssS'pex.jp'
p895
g612
sS'amazon.co.jp'
p896
(dp897
g424
F0.022000000000000002
ssg141
g627
sS'rakuten.co.jp'
p898
(dp899
g424
F0.022000000000000002
ssS'ecnavi.jp'
p900
(dp901
g424
F0.013000000000000001
ssg361
(dp902
g424
F0.314
ssS'google.co.jp'
p903
g594
sg233
g812
ssg317
(dp904
g337
(dp905
g424
F0.048
ssg593
g899
sg436
(dp906
g424
F0.061
ssS'youtube.com'
p907
g878
sS'google.com'
p908
(dp909
g424
F0.034
ssg53
g510
sg566
(dp910
g424
F0.044000000000000004
ssg221
g786
sg33
g469
sg165
g675
sg129
g583
sg413
(dp911
g424
F0.10849999999999999
ssS'kakaku.com'
p912
g568
sS'facebook.com'
p913
(dp914
g424
F0.01
ssg525
g619
ssg321
(dp915
g185
g694
ssg325
(dp916
g141
g628
ssg329
(dp917
g484
g874
ssg333
(dp918
g431
g828
sg185
g699
sg496
g800
sg440
(dp919
g424
F0.006999999999999999
sssg337
(dp920
g8
g423
sg141
g625
sg593
g901
sS'yahoo.co.jp'
p921
(dp922
g424
F0.051
ssS'google.com'
p923
(dp924
g424
F0.024
ssS'pex.jp'
p925
g610
sS'amazon.co.jp'
p926
(dp927
g424
F0.016
ssS'rakuten.co.jp'
p928
g905
sg165
g668
sS'dreevee.com'
p929
g522
sg257
g834
ssg341
(dp930
g559
g703
sS'nicovideo.jp'
p931
g869
sS'wikipedia.org'
p932
g437
sS'youtube.com'
p933
g881
sg593
g892
sS'rakuten.co.jp'
p934
g906
sg544
g743
sg337
g922
sg525
g614
sg575
g773
sg33
g459
sS'twitter.com'
p935
g791
sg361
(dp936
g424
F0.049
ssS'facebook.com'
p937
(dp938
g424
F0.017
ssg233
g807
sg133
g608
sg53
g508
sg273
g841
sS'fc2.com'
p939
(dp940
g424
F0.013999999999999999
ssS'google.com'
p941
(dp942
g424
F0.026000000000000002
ssg566
(dp943
g424
F0.065
ssg165
g671
sg129
g577
sg472
(dp944
g424
F0.08
ssg535
g487
ssg345
(dp945
g431
g819
sg559
g702
sg564
g435
sg438
g880
sg426
g717
sg539
g730
sS'microsoft.com'
p946
g552
sg428
g638
sg451
(dp947
g424
F0.022
ssg125
g570
sS'google.com'
p948
(dp949
g424
F0.031
sssg349
(dp950
g525
g617
ssg353
(dp951
g478
g527
sg133
g604
ssg357
(dp952
g564
g446
sg488
g662
sg285
g856
sg442
(dp953
g424
F0.006999999999999999
sssg361
(dp954
g209
g765
sg277
g850
sS'yahoo.co.jp'
p955
g936
sS'tsite.jp'
p956
g902
sS'amazon.co.jp'
p957
(dp958
g424
F0.009000000000000001
ssg544
g751
sS'fc2.com'
p959
(dp960
g424
F0.013999999999999999
ssS'google.co.jp'
p961
g587
sg385
(dp962
g424
F0.021
ssg233
g815
ssg365
(dp963
g273
g847
ssg369
(dp964
g165
g677
ssg373
(dp965
S'yahoo.com'
p966
g825
sg559
g711
sg205
g762
sg345
g947
sg436
g938
sg157
g663
sg438
g882
sg440
(dp967
g424
F0.0795
ssg197
g734
sg566
(dp968
g424
F0.017
ssg185
g696
sg33
g475
sg468
g914
sS'wikipedia.org'
p969
g452
sg285
g859
sS'twitter.com'
p970
g798
sg535
g500
sg129
g591
sg442
(dp971
g424
F0.045
ssS'amazon.com'
p972
g646
sg426
g726
ssg377
(dp973
g53
g516
ssg381
(dp974
g141
g633
sg478
g533
sg165
g679
ssg385
(dp975
g361
g962
ssg389
(dp976
g478
g524
ssg393
(dp977
g205
g757
sg488
g655
sg438
g885
sg440
(dp978
g424
F0.065
ssS'google.co.uk'
p979
g953
sg57
g520
sS'wikipedia.org'
p980
g443
sg496
g796
sg535
g495
sg428
g640
sS'facebook.com'
p981
g971
sg77
g542
ssg397
(dp982
g484
g868
sg436
g940
sg575
g771
sg566
(dp983
g424
F0.012
ssg544
g741
sg361
g960
sg129
g574
sg233
g805
ssg401
(dp984
g559
g707
sg484
g873
sS'wikipedia.org'
p985
g441
sS'youtube.com'
p986
g887
sg193
g721
sg539
g736
sg468
g909
sg544
g747
sS'linkedin.com'
p987
g919
sg337
g924
sg205
g759
sg434
g949
sg436
g942
sg575
g777
sg33
g463
sg225
g794
sg535
g493
sg451
g967
sg233
g811
sg593
g894
sS'reddit.com'
p988
g978
sg185
g693
sg145
g642
sS'yahoo.com'
p989
g822
sg273
g843
sg488
g659
sg566
(dp990
g424
F0.040999999999999995
ssg165
g673
sg285
g861
sg129
g581
sg472
(dp991
g424
F0.027000000000000003
ssg525
g616
ssg405
(dp992
g337
g927
sS'nicovideo.jp'
p993
g875
sS'fc2.com'
p994
g983
sg436
g943
sS'youtube.com'
p995
g888
sS'google.com'
p996
g990
sg593
g897
sg575
g779
sg468
g910
sg33
g467
sg544
g754
sS'twitter.com'
p997
g797
sg361
g958
sg129
g582
sg472
(dp998
g424
F0.017
ssg121
g567
sS'facebook.com'
p999
g968
sg233
g814
ssg409
(dp1000
g472
(dp1001
g424
F0.017
ssg525
g622
ssg413
(dp1002
S'yahoo.co.jp'
p1003
g944
sg161
g666
sS'google.com'
p1004
g991
sg53
g515
sS'amazon.co.jp'
p1005
g998
sg468
g911
sg33
g473
sg409
g1001
sg173
g682
sS'google.co.jp'
p1006
g589
sS'youtube.com'
p1007
g889
sssS'graph'
p1008
(dp1009
sS'adjlist_dict_factory'
p1010
g418
sS'adj'
p1011
g421
sb.