ccopy_reg
_reconstructor
p0
(cnetworkx.classes.graph
Graph
p1
c__builtin__
object
p2
Ntp3
Rp4
(dp5
S'node'
p6
(dp7
S'ebis.ne.jp'
p8
(dp9
S'pageviews'
p10
F3.7
sS'ilist'
p11
(lp12
I98
asS'alist'
p13
(lp14
I0
asS'name'
p15
g8
sS'reach'
p16
F0.01528
ssS'slickdeals.net'
p17
(dp18
g10
F3.97
sg11
(lp19
I159
asg13
(lp20
I91
asg15
g17
sg16
F0.3052
ssS'infobae.com'
p21
(dp22
g10
F3.19
sg11
(lp23
I78
asg13
(lp24
I96
asg15
g21
sg16
F0.0715
ssS'wikipedia.org'
p25
(dp26
g10
F3.65
sg11
(lp27
I87
asg13
(lp28
I98
asg15
g25
sg16
F9.593
ssS'detail.tmall.com'
p29
(dp30
g10
F1.22
sg11
(lp31
I49
asg13
(lp32
I31
asg15
g29
sg16
F0.808
ssS'google.com.tw'
p33
(dp34
g10
F13.42
sg11
(lp35
I73
asg13
(lp36
I85
asg15
g33
sg16
F0.6096
ssS'360.cn'
p37
(dp38
g10
F4.81
sg11
(lp39
I61
asg13
(lp40
I69
asg15
g37
sg16
F2.271
ssS'blogspot.tw'
p41
(dp42
g10
F2.0
sg11
(lp43
I35
asg13
(lp44
I80
asg15
g41
sg16
F0.0709
ssS'mercadolibre.com'
p45
(dp46
g10
F1.3
sg11
(lp47
I117
asg13
(lp48
I180
asg15
g45
sg16
F0.041
ssS'alipay.com'
p49
(dp50
g10
F4.67
sg11
(lp51
I75
asg13
(lp52
I55
asg15
g49
sg16
F0.781
ssS'flipkart.com'
p53
(dp54
g10
F8.5
sg11
(lp55
I43
asg13
(lp56
I47
asg15
g53
sg16
F0.6661
ssS'amazon.de'
p57
(dp58
g10
F14.53
sg11
(lp59
I87
asg13
(lp60
I61
asg15
g57
sg16
F1.0217
ssS'tmall.com'
p61
(dp62
g10
F3.39
sg11
(lp63
I69
asg13
(lp64
I69
asg15
g61
sg16
F2.494
ssS'china.com.cn'
p65
(dp66
g10
F4.14
sg11
(lp67
I91
asg13
(lp68
I111
asg15
g65
sg16
F0.677
ssS'huffingtonpost.com'
p69
(dp70
g10
F2.08
sg11
(lp71
I129
asg13
(lp72
I128
asg15
g69
sg16
F0.6997
ssS'chobirich.com'
p73
(dp74
g10
F5.21
sg11
(lp75
I150
asg13
(lp76
I82
asg15
g73
sg16
F0.0174
ssS'rakuten.ne.jp'
p77
(dp78
g10
F1.78
sg11
(lp79
I198
asg13
(lp80
I58
asg15
g77
sg16
F0.1215
ssS'gendama.jp'
p81
(dp82
g10
F11.82
sg11
(lp83
I198
asg13
(lp84
I102
asg15
g81
sg16
F0.0186
ssS't.co'
p85
(dp86
g10
F2.86
sg11
(lp87
I106
asg13
(lp88
I86
asg15
g85
sg16
F2.665
ssS'pinimg.com'
p89
(dp90
g10
F1.52
sg11
(lp91
I71
asg13
(lp92
I62
asg15
g89
sg16
F0.3284
ssS'usps.com'
p93
(dp94
g10
F3.1
sg11
(lp95
I143
asg13
(lp96
I125
asg15
g93
sg16
F0.35
ssS'nextmedia.com'
p97
(dp98
g10
F5.25
sg11
(lp99
I82
asg13
(lp100
I31
asg15
g97
sg16
F0.0567
ssS'craigslist.org'
p101
(dp102
g10
F14.18
sg11
(lp103
I135
asg13
(lp104
I107
asg15
g101
sg16
F0.8707
ssS'gpoint.co.jp'
p105
(dp106
g10
F11.11
sg11
(lp107
I0
asg13
(lp108
I0
asg15
g105
sg16
F0.0256
ssS'nasa.gov'
p109
(dp110
g10
F2.9
sg11
(lp111
I84
asg13
(lp112
I167
asg15
g109
sg16
F0.0924
ssS'alibaba.com'
p113
(dp114
g10
F3.67
sg11
(lp115
I90
asg13
(lp116
I80
asg15
g113
sg16
F1.278
ssS'gfycat.com'
p117
(dp118
g10
F3.04
sg11
(lp119
I65
asg13
(lp120
I57
asg15
g117
sg16
F0.2043
ssS'dreevee.com'
p121
(dp122
g10
F4.91
sg11
(lp123
I0
asg13
(lp124
I0
asg15
g121
sg16
F0.0362
ssS'popads.net'
p125
(dp126
g10
F2.63
sg11
(lp127
I62
asg13
(lp128
I63
asg15
g125
sg16
F0.8425
ssS'cnn.com'
p129
(dp130
g10
F2.73
sg11
(lp131
I138
asg13
(lp132
I137
asg15
g129
sg16
F1.0662
ssS'walmart.com'
p133
(dp134
g10
F5.95
sg11
(lp135
I128
asg13
(lp136
I152
asg15
g133
sg16
F0.5062
ssS'cntv.cn'
p137
(dp138
g10
F6.46
sg11
(lp139
I113
asg13
(lp140
I96
asg15
g137
sg16
F0.88
ssS'office.com'
p141
(dp142
g10
F2.81
sg11
(lp143
I98
asg13
(lp144
I94
asg15
g141
sg16
F1.428
ssS'imgur.com'
p145
(dp146
g10
F11.25
sg11
(lp147
I98
asg13
(lp148
I77
asg15
g145
sg16
F1.4208
ssS'pornhub.com'
p149
(dp150
g10
F7.29
sg11
(lp151
I111
asg13
(lp152
I102
asg15
g149
sg16
F1.1168
ssS'mercadolibre.com.ar'
p153
(dp154
g10
F12.52
sg11
(lp155
I108
asg13
(lp156
I144
asg15
g153
sg16
F0.1254
ssS'nytimes.com'
p157
(dp158
g10
F2.81
sg11
(lp159
I146
asg13
(lp160
I172
asg15
g157
sg16
F0.8693
ssS'nyaa.se'
p161
(dp162
g10
F8.72
sg11
(lp163
I33
asg13
(lp164
I9
asg15
g161
sg16
F0.1755
ssS'pixiv.net'
p165
(dp166
g10
F24.64
sg11
(lp167
I63
asg13
(lp168
I62
asg15
g165
sg16
F0.2766
ssS'ndtv.com'
p169
(dp170
g10
F2.37
sg11
(lp171
I60
asg13
(lp172
I74
asg15
g169
sg16
F0.3336
ssS'360.com'
p173
(dp174
g10
F6.08
sg11
(lp175
I41
asg13
(lp176
I0
asg15
g173
sg16
F0.801
ssS'microsoft.com'
p177
(dp178
g10
F2.5
sg11
(lp179
I105
asg13
(lp180
I119
asg15
g177
sg16
F2.428
ssS'media-ad.jp'
p181
(dp182
g10
F7.71
sg11
(lp183
I0
asg13
(lp184
I0
asg15
g181
sg16
F0.0167
ssS'panasonic.jp'
p185
(dp186
g10
F9.57
sg11
(lp187
I121
asg13
(lp188
I0
asg15
g185
sg16
F0.0764
ssS'aliexpress.com'
p189
(dp190
g10
F17.51
sg11
(lp191
I89
asg13
(lp192
I74
asg15
g189
sg16
F1.147
ssS'hao123.com'
p193
(dp194
g10
F2.32
sg11
(lp195
I65
asg13
(lp196
I102
asg15
g193
sg16
F3.682
ssS'fenrir-inc.com'
p197
(dp198
g10
F6.86
sg11
(lp199
I44
asg13
(lp200
I0
asg15
g197
sg16
F0.00973
ssS'ebay.co.uk'
p201
(dp202
g10
F15.25
sg11
(lp203
I69
asg13
(lp204
I86
asg15
g201
sg16
F0.5279
ssS'buzzfeed.com'
p205
(dp206
g10
F3.02
sg11
(lp207
I113
asg13
(lp208
I82
asg15
g205
sg16
F0.6674
ssS'taboola.com'
p209
(dp210
g10
F1.51
sg11
(lp211
I128
asg13
(lp212
I175
asg15
g209
sg16
F0.6076
ssS'twitch.tv'
p213
(dp214
g10
F4.3
sg11
(lp215
I132
asg13
(lp216
I90
asg15
g213
sg16
F0.7519
ssS'world.tmall.com'
p217
(dp218
g10
F5.99
sg11
(lp219
I104
asg13
(lp220
I0
asg15
g217
sg16
F0.0495
ssS'on.cc'
p221
(dp222
g10
F3.93
sg11
(lp223
I96
asg13
(lp224
I97
asg15
g221
sg16
F0.0315
ssS'thefreedictionary.com'
p225
(dp226
g10
F1.73
sg11
(lp227
I122
asg13
(lp228
I124
asg15
g225
sg16
F0.2429
ssS'mobile01.com'
p229
(dp230
g10
F6.91
sg11
(lp231
I98
asg13
(lp232
I88
asg15
g229
sg16
F0.082
ssS'd-moneymall.jp'
p233
(dp234
g10
F2.24
sg11
(lp235
I0
asg13
(lp236
I0
asg15
g233
sg16
F0.00471
ssS'google.fr'
p237
(dp238
g10
F9.63
sg11
(lp239
I57
asg13
(lp240
I97
asg15
g237
sg16
F1.8588
ssS'theguardian.com'
p241
(dp242
g10
F2.36
sg11
(lp243
I96
asg13
(lp244
I138
asg15
g241
sg16
F0.5897
ssS'kakaku.com'
p245
(dp246
g10
F7.02
sg11
(lp247
I142
asg13
(lp248
I98
asg15
g245
sg16
F0.4113
ssS'mercadolibre.com.co'
p249
(dp250
g10
F8.52
sg11
(lp251
I118
asg13
(lp252
I75
asg15
g249
sg16
F0.0253
ssS'homepage-web.com'
p253
(dp254
g10
F1.09
sg11
(lp255
I59
asg13
(lp256
I141
asg15
g253
sg16
F0.1277
ssS'umblr.com'
p257
(dp258
g10
F2.14
sg11
(lp259
I79
asg13
(lp260
I68
asg15
g257
sg16
F0.2132
ssS'google.co.jp'
p261
(dp262
g10
F13.77
sg11
(lp263
I143
asg13
(lp264
I85
asg15
g261
sg16
F3.299
ssS'1688.com'
p265
(dp266
g10
F14.75
sg11
(lp267
I80
asg13
(lp268
I17
asg15
g265
sg16
F0.249
ssS'ad-link.jp'
p269
(dp270
g10
F3.68
sg11
(lp271
I0
asg13
(lp272
I0
asg15
g269
sg16
F0.0231
ssS'pex.jp'
p273
(dp274
g10
F11.17
sg11
(lp275
I198
asg13
(lp276
I0
asg15
g273
sg16
F0.037
ssS'buy.tmall.com'
p277
(dp278
g10
F2.08
sg11
(lp279
I46
asg13
(lp280
I0
asg15
g277
sg16
F0.1349
ssS'espn.go.com'
p281
(dp282
g10
F4.24
sg11
(lp283
I154
asg13
(lp284
I115
asg15
g281
sg16
F0.7153
ssS'gamefactory.jp'
p285
(dp286
g10
F6.09
sg11
(lp287
I0
asg13
(lp288
I0
asg15
g285
sg16
F0.0494
ssS'taobao.com'
p289
(dp290
g10
F4.83
sg11
(lp291
I61
asg13
(lp292
I81
asg15
g289
sg16
F5.776
ssS'clarin.com'
p293
(dp294
g10
F3.26
sg11
(lp295
I82
asg13
(lp296
I140
asg15
g293
sg16
F0.0949
ssS'ptt.cc'
p297
(dp298
g10
F3.38
sg11
(lp299
I35
asg13
(lp300
I42
asg15
g297
sg16
F0.0822
ssS'amazon.com'
p301
(dp302
g10
F12.34
sg11
(lp303
I117
asg13
(lp304
I141
asg15
g301
sg16
F7.504
ssS'media.tumblr.com'
p305
(dp306
g10
F2.12
sg11
(lp307
I113
asg13
(lp308
I77
asg15
g305
sg16
F0.3169
ssS'google.com.hk'
p309
(dp310
g10
F5.88
sg11
(lp311
I76
asg13
(lp312
I48
asg15
g309
sg16
F1.279
ssS'cnzz.com'
p313
(dp314
g10
F4.7
sg11
(lp315
I98
asg13
(lp316
I91
asg15
g313
sg16
F0.55
ssS'google.com.mx'
p317
(dp318
g10
F8.18
sg11
(lp319
I106
asg13
(lp320
I121
asg15
g317
sg16
F1.322
ssS'bbc.co.uk'
p321
(dp322
g10
F4.57
sg11
(lp323
I110
asg13
(lp324
I126
asg15
g321
sg16
F0.7763
ssS'pinterest.com'
p325
(dp326
g10
F5.48
sg11
(lp327
I112
asg13
(lp328
I96
asg15
g325
sg16
F2.222
ssS'instagram.com'
p329
(dp330
g10
F7.6
sg11
(lp331
I106
asg13
(lp332
I65
asg15
g329
sg16
F2.782
ssS'tumblr.com'
p333
(dp334
g10
F6.3
sg11
(lp335
I116
asg13
(lp336
I96
asg15
g333
sg16
F1.673
ssS'ruten.com.tw'
p337
(dp338
g10
F17.06
sg11
(lp339
I78
asg13
(lp340
I62
asg15
g337
sg16
F0.0753
ssS'2ch.net'
p341
(dp342
g10
F5.64
sg11
(lp343
I112
asg13
(lp344
I44
asg15
g341
sg16
F0.2534
ssS'kingsoft.jp'
p345
(dp346
g10
F2.25
sg11
(lp347
I104
asg13
(lp348
I0
asg15
g345
sg16
F0.0181
ssS'xinhuanet.com'
p349
(dp350
g10
F5.94
sg11
(lp351
I72
asg13
(lp352
I88
asg15
g349
sg16
F0.998
ssS'shufoo.net'
p353
(dp354
g10
F4.63
sg11
(lp355
I148
asg13
(lp356
I96
asg15
g353
sg16
F0.0563
ssS'biglobe.ne.jp'
p357
(dp358
g10
F3.38
sg11
(lp359
I76
asg13
(lp360
I0
asg15
g357
sg16
F0.1529
ssS'livedoor.com'
p361
(dp362
g10
F6.77
sg11
(lp363
I127
asg13
(lp364
I119
asg15
g361
sg16
F0.1778
ssS'ppls.jp'
p365
(dp366
g10
F1.75
sg11
(lp367
I0
asg13
(lp368
I0
asg15
g365
sg16
F0.01123
ssS'elpais.com'
p369
(dp370
g10
F2.45
sg11
(lp371
I59
asg13
(lp372
I68
asg15
g369
sg16
F0.2088
ssS'amazon.in'
p373
(dp374
g10
F10.61
sg11
(lp375
I48
asg13
(lp376
I57
asg15
g373
sg16
F0.85
ssS'google.co.in'
p377
(dp378
g10
F13.69
sg11
(lp379
I37
asg13
(lp380
I37
asg15
g377
sg16
F5.384
ssS'xuite.net'
p381
(dp382
g10
F1.91
sg11
(lp383
I83
asg13
(lp384
I86
asg15
g381
sg16
F0.0788
ssS'soso.com'
p385
(dp386
g10
F1.95
sg11
(lp387
I109
asg13
(lp388
I114
asg15
g385
sg16
F1.404
ssS'msn.com'
p389
(dp390
g10
F4.23
sg11
(lp391
I111
asg13
(lp392
I110
asg15
g389
sg16
F4.414
ssS'amazon.es'
p393
(dp394
g10
F9.99
sg11
(lp395
I35
asg13
(lp396
I56
asg15
g393
sg16
F0.2398
ssS'foxnews.com'
p397
(dp398
g10
F2.72
sg11
(lp399
I146
asg13
(lp400
I167
asg15
g397
sg16
F0.471
ssS'ebay.com'
p401
(dp402
g10
F12.58
sg11
(lp403
I109
asg13
(lp404
I129
asg15
g401
sg16
F2.182
ssS'live.com'
p405
(dp406
g10
F3.82
sg11
(lp407
I94
asg13
(lp408
I94
asg15
g405
sg16
F6.619
ssS'ebay.es'
p409
(dp410
g10
F10.52
sg11
(lp411
I43
asg13
(lp412
I37
asg15
g409
sg16
F0.0639
ssS'elmundo.es'
p413
(dp414
g10
F2.91
sg11
(lp415
I55
asg13
(lp416
I67
asg15
g413
sg16
F0.1594
ssS'drudgereport.com'
p417
(dp418
g10
F1.05
sg11
(lp419
I173
asg13
(lp420
I168
asg15
g417
sg16
F0.2328
ssS'dmm.co.jp'
p421
(dp422
g10
F10.76
sg11
(lp423
I129
asg13
(lp424
I95
asg15
g421
sg16
F0.431
ssS'mediafire.com'
p425
(dp426
g10
F2.17
sg11
(lp427
I98
asg13
(lp428
I72
asg15
g425
sg16
F0.5979
ssS'bleacherreport.com'
p429
(dp430
g10
F3.02
sg11
(lp431
I149
asg13
(lp432
I112
asg15
g429
sg16
F0.1717
ssS'mercadolibre.com.mx'
p433
(dp434
g10
F8.9
sg11
(lp435
I72
asg13
(lp436
I67
asg15
g433
sg16
F0.092
ssS'thehindu.com'
p437
(dp438
g13
(lp439
I75
asg10
F2.35
sg11
(lp440
I58
asg15
g437
sg16
F0.1285
ssS'supermm.jp'
p441
(dp442
g10
F9.9
sg11
(lp443
I0
asg13
(lp444
I0
asg15
g441
sg16
F0.0022
ssS'51.la'
p445
(dp446
g10
F5.05
sg11
(lp447
I158
asg13
(lp448
I56
asg15
g445
sg16
F0.368
ssS'etsy.com'
p449
(dp450
g10
F9.11
sg11
(lp451
I127
asg13
(lp452
I98
asg15
g449
sg16
F0.4573
ssS'dailymail.co.uk'
p453
(dp454
g10
F2.66
sg11
(lp455
I117
asg13
(lp456
I118
asg15
g453
sg16
F0.6789
ssS'amazon.co.uk'
p457
(dp458
g10
F11.21
sg11
(lp459
I73
asg13
(lp460
I98
asg15
g457
sg16
F0.8267
ssS'dmm.com'
p461
(dp462
g10
F4.35
sg11
(lp463
I118
asg13
(lp464
I85
asg15
g461
sg16
F0.2197
ssS'rakuten-card.co.jp'
p465
(dp466
g10
F4.79
sg11
(lp467
I146
asg13
(lp468
I45
asg15
g465
sg16
F0.0828
ssS'mercadolibre.com.ve'
p469
(dp470
g10
F13.39
sg11
(lp471
I36
asg13
(lp472
I43
asg15
g469
sg16
F0.0822
ssS'twitter.com'
p473
(dp474
g10
F5.27
sg11
(lp475
I109
asg13
(lp476
I93
asg15
g473
sg16
F6.57
ssS'washingtonpost.com'
p477
(dp478
g10
F1.83
sg11
(lp479
I146
asg13
(lp480
I169
asg15
g477
sg16
F0.5522
ssS'google.de'
p481
(dp482
g10
F9.08
sg11
(lp483
I88
asg13
(lp484
I68
asg15
g481
sg16
F2.3546
ssS'discas.net'
p485
(dp486
g10
F2.65
sg11
(lp487
I128
asg13
(lp488
I0
asg15
g485
sg16
F0.0262
ssS'haosou.com'
p489
(dp490
g10
F6.14
sg11
(lp491
I79
asg13
(lp492
I27
asg15
g489
sg16
F0.776
ssS'yahoo.com'
p493
(dp494
g10
F7.0
sg11
(lp495
I113
asg13
(lp496
I112
asg15
g493
sg16
F10.917
ssS'appledaily.com.tw'
p497
(dp498
g10
F3.69
sg11
(lp499
I41
asg13
(lp500
I57
asg15
g497
sg16
F0.1109
ssS'linkwithin.com'
p501
(dp502
g10
F2.03
sg11
(lp503
I71
asg13
(lp504
I73
asg15
g501
sg16
F0.0666
ssS'gmo.jp'
p505
(dp506
g10
F7.28
sg11
(lp507
I195
asg13
(lp508
I103
asg15
g505
sg16
F0.01072
ssS'potora.jp'
p509
(dp510
g10
F17.9
sg11
(lp511
I0
asg13
(lp512
I0
asg15
g509
sg16
F0.01491
ssS'pixnet.net'
p513
(dp514
g10
F3.18
sg11
(lp515
I62
asg13
(lp516
I80
asg15
g513
sg16
F0.2457
ssS'perfil.com'
p517
(dp518
g10
F4.47
sg11
(lp519
I61
asg13
(lp520
I198
asg15
g517
sg16
F0.0192
ssS'dreammail.jp'
p521
(dp522
g10
F8.1
sg11
(lp523
I0
asg13
(lp524
I0
asg15
g521
sg16
F0.0197
ssS'mingpao.com'
p525
(dp526
g10
F4.19
sg11
(lp527
I130
asg13
(lp528
I143
asg15
g525
sg16
F0.0135
ssS'pointservice.com'
p529
(dp530
g10
F12.6
sg11
(lp531
I0
asg13
(lp532
I0
asg15
g529
sg16
F0.00866
ssS'research-panel.jp'
p533
(dp534
g10
F2.1
sg11
(lp535
I146
asg13
(lp536
I58
asg15
g533
sg16
F0.0438
ssS'forgetfulbc.blogspot.com'
p537
(dp538
g10
F2.23
sg11
(lp539
I27
asg13
(lp540
I0
asg15
g537
sg16
F0.00812
ssS'indianexpress.com'
p541
(dp542
g10
F2.36
sg11
(lp543
I57
asg13
(lp544
I72
asg15
g541
sg16
F0.1642
ssS'refdesk.com'
p545
(dp546
g10
F1.16
sg11
(lp547
I61
asg13
(lp548
I198
asg15
g545
sg16
F0.00456
ssS'wikiwiki.jp'
p549
(dp550
g10
F5.26
sg11
(lp551
I111
asg13
(lp552
I98
asg15
g549
sg16
F0.1395
ssS'fruitmail.net'
p553
(dp554
g10
F10.59
sg11
(lp555
I182
asg13
(lp556
I70
asg15
g553
sg16
F0.01529
ssS'babytree.com'
p557
(dp558
g10
F5.8
sg11
(lp559
I59
asg13
(lp560
I28
asg15
g557
sg16
F0.35
ssS'lanacion.com.ar'
p561
(dp562
g10
F2.96
sg11
(lp563
I86
asg13
(lp564
I165
asg15
g561
sg16
F0.0877
ssS'ponta.jp'
p565
(dp566
g10
F6.12
sg11
(lp567
I0
asg13
(lp568
I0
asg15
g565
sg16
F0.0266
ssS'yandex.ru'
p569
(dp570
g10
F12.41
sg11
(lp571
I67
asg13
(lp572
I67
asg15
g569
sg16
F2.579
ssS'nukineta-heaven.com'
p573
(dp574
g10
F1.5
sg11
(lp575
I0
asg13
(lp576
I0
asg15
g573
sg16
F0.0018
ssS'google.es'
p577
(dp578
g10
F10.98
sg11
(lp579
I43
asg13
(lp580
I74
asg15
g577
sg16
F1.5213
ssS'mercadolibre.com.uy'
p581
(dp582
g10
F14.1
sg11
(lp583
I98
asg13
(lp584
I0
asg15
g581
sg16
F0.00926
ssS'indiatimes.com'
p585
(dp586
g10
F4.82
sg11
(lp587
I61
asg13
(lp588
I102
asg15
g585
sg16
F0.6631
ssS'aol.com'
p589
(dp590
g10
F3.54
sg11
(lp591
I139
asg13
(lp592
I143
asg15
g589
sg16
F0.5453
ssS'qq.com'
p593
(dp594
g10
F4.06
sg11
(lp595
I106
asg13
(lp596
I86
asg15
g593
sg16
F7.578
ssS'paypal.com'
p597
(dp598
g10
F4.75
sg11
(lp599
I104
asg13
(lp600
I124
asg15
g597
sg16
F1.891
ssS'so-net.ne.jp'
p601
(dp602
g10
F3.33
sg11
(lp603
I106
asg13
(lp604
I102
asg15
g601
sg16
F0.165
ssS'google.com.co'
p605
(dp606
g10
F7.16
sg11
(lp607
I109
asg13
(lp608
I144
asg15
g605
sg16
F0.385
ssS'vk.com'
p609
(dp610
g10
F15.32
sg11
(lp611
I68
asg13
(lp612
I52
asg15
g609
sg16
F2.639
ssS'warau.jp'
p613
(dp614
g10
F25.0
sg11
(lp615
I0
asg13
(lp616
I0
asg15
g613
sg16
F0.01527
ssS'outbrain.com'
p617
(dp618
g10
F1.66
sg11
(lp619
I119
asg13
(lp620
I156
asg15
g617
sg16
F1.347
ssS'breitbart.com'
p621
(dp622
g10
F2.38
sg11
(lp623
I162
asg13
(lp624
I164
asg15
g621
sg16
F0.1041
ssS'nicovideo.jp'
p625
(dp626
g10
F17.1
sg11
(lp627
I111
asg13
(lp628
I98
asg15
g625
sg16
F0.8177
ssS'sina.com.cn'
p629
(dp630
g10
F3.95
sg11
(lp631
I114
asg13
(lp632
I87
asg15
g629
sg16
F4.264
ssS'youtube.com'
p633
(dp634
g10
F13.1
sg11
(lp635
I89
asg13
(lp636
I102
asg15
g633
sg16
F35.771
ssS'sohu.com'
p637
(dp638
g10
F2.55
sg11
(lp639
I56
asg13
(lp640
I86
asg15
g637
sg16
F2.395
ssS'tsite.jp'
p641
(dp642
g10
F5.09
sg11
(lp643
I58
asg13
(lp644
I0
asg15
g641
sg16
F0.1239
ssS'rakuten.co.jp'
p645
(dp646
g10
F11.69
sg11
(lp647
I146
asg13
(lp648
I95
asg15
g645
sg16
F0.9822
ssS'stackoverflow.com'
p649
(dp650
g10
F4.36
sg11
(lp651
I91
asg13
(lp652
I64
asg15
g649
sg16
F1.64
ssS'netmile.co.jp'
p653
(dp654
g10
F7.99
sg11
(lp655
I0
asg13
(lp656
I0
asg15
g653
sg16
F0.01212
ssS'google.ru'
p657
(dp658
g10
F14.73
sg11
(lp659
I59
asg13
(lp660
I49
asg15
g657
sg16
F2.032
ssS'pixnet.cc'
p661
(dp662
g10
F5.13
sg11
(lp663
I95
asg13
(lp664
I0
asg15
g661
sg16
F0.0047
ssS'amazon.cn'
p665
(dp666
g10
F14.2
sg11
(lp667
I98
asg13
(lp668
I98
asg15
g665
sg16
F0.548
ssS'absoluteclickscom.com'
p669
(dp670
g10
F2.64
sg11
(lp671
I41
asg13
(lp672
I77
asg15
g669
sg16
F0.1119
ssS'linkedin.com'
p673
(dp674
g10
F6.27
sg11
(lp675
I119
asg13
(lp676
I108
asg15
g673
sg16
F3.616
ssS'ecnavi.jp'
p677
(dp678
g10
F15.42
sg11
(lp679
I182
asg13
(lp680
I123
asg15
g677
sg16
F0.0659
ssS'yahoo.co.jp'
p681
(dp682
g10
F16.8
sg11
(lp683
I142
asg13
(lp684
I74
asg15
g681
sg16
F3.081
ssS'bing.com'
p685
(dp686
g10
F3.14
sg11
(lp687
I140
asg13
(lp688
I114
asg15
g685
sg16
F4.68
ssS'weibo.com'
p689
(dp690
g10
F4.86
sg11
(lp691
I78
asg13
(lp692
I74
asg15
g689
sg16
F3.677
ssS'pointkodukai.com'
p693
(dp694
g10
F1.41
sg11
(lp695
I0
asg13
(lp696
I0
asg15
g693
sg16
F0.0059
ssS'a-q-f.com'
p697
(dp698
g10
F6.37
sg11
(lp699
I74
asg13
(lp700
I0
asg15
g697
sg16
F0.0321
ssS'google.co.uk'
p701
(dp702
g10
F10.28
sg11
(lp703
I74
asg13
(lp704
I93
asg15
g701
sg16
F2.016
ssS'tsutaya-adult.com'
p705
(dp706
g10
F9.83
sg11
(lp707
I0
asg13
(lp708
I0
asg15
g705
sg16
F0.00939
ssS'recruit.co.jp'
p709
(dp710
g10
F2.93
sg11
(lp711
I98
asg13
(lp712
I0
asg15
g709
sg16
F0.0485
ssS'aeon.jp'
p713
(dp714
g10
F2.48
sg11
(lp715
I0
asg13
(lp716
I0
asg15
g713
sg16
F0.00577
ssS'facebook.com'
p717
(dp718
g10
F10.95
sg11
(lp719
I105
asg13
(lp720
I98
asg15
g717
sg16
F35.3
ssS'omni7.jp'
p721
(dp722
g10
F4.08
sg11
(lp723
I0
asg13
(lp724
I0
asg15
g721
sg16
F0.0401
ssS'dietnavi.com'
p725
(dp726
g10
F12.46
sg11
(lp727
I144
asg13
(lp728
I111
asg15
g725
sg16
F0.0176
ssS'anitube.se'
p729
(dp730
g10
F6.11
sg11
(lp731
I17
asg13
(lp732
I0
asg15
g729
sg16
F0.0974
ssS'bild.de'
p733
(dp734
g10
F3.57
sg11
(lp735
I98
asg13
(lp736
I67
asg15
g733
sg16
F0.2065
ssS'nextdigital.com.hk'
p737
(dp738
g10
F1.09
sg11
(lp739
I0
asg13
(lp740
I0
asg15
g737
sg16
F0.0015
ssS'baidu.com'
p741
(dp742
g10
F7.93
sg11
(lp743
I91
asg13
(lp744
I84
asg15
g741
sg16
F12.796
ssS'lifemedia.jp'
p745
(dp746
g10
F7.08
sg11
(lp747
I0
asg13
(lp748
I0
asg15
g745
sg16
F0.0217
ssS'reddit.com'
p749
(dp750
g10
F9.39
sg11
(lp751
I109
asg13
(lp752
I78
asg15
g749
sg16
F2.062
ssS'gamer.com.tw'
p753
(dp754
g10
F9.59
sg11
(lp755
I107
asg13
(lp756
I91
asg15
g753
sg16
F0.1057
ssS'sogou.com'
p757
(dp758
g10
F2.9
sg11
(lp759
I78
asg13
(lp760
I58
asg15
g757
sg16
F0.885
ssS'google.com.ar'
p761
(dp762
g10
F8.41
sg11
(lp763
I123
asg13
(lp764
I198
asg15
g761
sg16
F0.6307
ssS'archiveofourown.org'
p765
(dp766
g10
F12.13
sg11
(lp767
I45
asg13
(lp768
I40
asg15
g765
sg16
F0.0614
ssS'fc2.com'
p769
(dp770
g10
F6.08
sg11
(lp771
I94
asg13
(lp772
I69
asg15
g769
sg16
F1.3766
ssS'google.cn'
p773
(dp774
g10
F2.09
sg11
(lp775
I88
asg13
(lp776
I74
asg15
g773
sg16
F0.454
ssS'google.ca'
p777
(dp778
g10
F9.32
sg11
(lp779
I121
asg13
(lp780
I140
asg15
g777
sg16
F1.1235
ssS'google.com'
p781
(dp782
g10
F18.2
sg11
(lp783
I103
asg13
(lp784
I102
asg15
g781
sg16
F42.207
ssS'amazon.co.jp'
p785
(dp786
g10
F14.89
sg11
(lp787
I125
asg13
(lp788
I88
asg15
g785
sg16
F1.949
ssS'forgetfulbc.blogspot.hk'
p789
(dp790
g10
F1.0
sg11
(lp791
I0
asg13
(lp792
I0
asg15
g789
sg16
F0.00026
ssS'pointtown.com'
p793
(dp794
g10
F22.9
sg11
(lp795
I154
asg13
(lp796
I120
asg15
g793
sg16
F0.0287
ssS'hkgolden.com'
p797
(dp798
g10
F12.4
sg11
(lp799
I38
asg13
(lp800
I0
asg15
g797
sg16
F0.0219
ssS'infoseek.co.jp'
p801
(dp802
g10
F9.6
sg11
(lp803
I138
asg13
(lp804
I96
asg15
g801
sg16
F0.1054
ssS'ap.org'
p805
(dp806
g10
F1.63
sg11
(lp807
I168
asg13
(lp808
I142
asg15
g805
sg16
F0.058
ssS'bbc.com'
p809
(dp810
g10
F2.75
sg11
(lp811
I108
asg13
(lp812
I158
asg15
g809
sg16
F0.7297
sssS'node_dict_factory'
p813
c__builtin__
dict
p814
sS'edge_attr_dict_factory'
p815
g814
sS'edge'
p816
(dp817
g8
(dp818
g677
(dp819
S'weight'
p820
F0.019
sssg17
(dp821
S'ebay.com'
p822
(dp823
g820
F0.006999999999999999
ssS'amazon.com'
p824
(dp825
g820
F0.006
sssg21
(dp826
g561
(dp827
g820
F0.035500000000000004
ssS'google.es'
p828
(dp829
g820
F0.011000000000000001
ssS'youtube.com'
p830
(dp831
g820
F0.027000000000000003
ssS'google.com'
p832
(dp833
g820
F0.069
ssS'live.com'
p834
(dp835
g820
F0.013999999999999999
ssS'clarin.com'
p836
(dp837
g820
F0.0315
ssS'twitter.com'
p838
(dp839
g820
F0.017
ssS't.co'
p840
(dp841
g820
F0.021
ssS'facebook.com'
p842
(dp843
g820
F0.087
ssS'google.com.ar'
p844
(dp845
g820
F0.162
sssg25
(dp846
S'yahoo.com'
p847
(dp848
g820
F0.011
ssg333
(dp849
g820
F0.008
ssg437
(dp850
g820
F0.013000000000000001
ssS'bing.com'
p851
(dp852
g820
F0.022
ssS'yahoo.co.jp'
p853
(dp854
g820
F0.012
ssS'google.com.mx'
p855
(dp856
g820
F0.02
ssS'youtube.com'
p857
(dp858
g820
F0.0175
ssS'google.com'
p859
(dp860
g820
F0.156
ssS'reddit.com'
p861
(dp862
g820
F0.013999999999999999
ssg377
(dp863
g820
F0.018000000000000002
ssS'google.com.hk'
p864
(dp865
g820
F0.018000000000000002
ssg828
(dp866
g820
F0.015
ssS'google.co.uk'
p867
(dp868
g820
F0.02
ssg237
(dp869
g820
F0.017
ssg261
(dp870
g820
F0.027000000000000003
ssg33
(dp871
g820
F0.017
ssS'google.de'
p872
(dp873
g820
F0.033
ssS'facebook.com'
p874
(dp875
g820
F0.012
ssg145
(dp876
g820
F0.008
ssS'google.com.ar'
p877
(dp878
g820
F0.017
sssg29
(dp879
g289
(dp880
g820
F0.051
sssg33
(dp881
S'yahoo.com'
p882
(dp883
g820
F0.037000000000000005
ssg753
(dp884
g820
F0.011000000000000001
ssS'wikipedia.org'
p885
g871
sS'youtube.com'
p886
(dp887
g820
F0.05
ssS'google.com'
p888
(dp889
g820
F0.040999999999999995
ssg229
(dp890
g820
F0.008
ssg381
(dp891
g820
F0.43700000000000006
ssg337
(dp892
g820
F0.008
ssg297
(dp893
g820
F0.008
ssg513
(dp894
g820
F0.20650000000000002
ssg537
(dp895
g820
F0.055999999999999994
ssS'facebook.com'
p896
(dp897
g820
F0.068
ssg97
(dp898
g820
F0.022000000000000002
sssg37
(dp899
S'haosou.com'
p900
(dp901
g820
F0.09300000000000001
ssS'weibo.com'
p902
(dp903
g820
F0.033
ssg557
(dp904
g820
F0.061
ssS'china.com.cn'
p905
(dp906
g820
F0.073
ssS'51.la'
p907
(dp908
g820
F0.064
ssS'baidu.com'
p909
(dp910
g820
F0.1125
ssS'sohu.com'
p911
(dp912
g820
F0.053000000000000005
ssg773
(dp913
g820
F0.01
ssg289
(dp914
g820
F0.0285
ssS'360.com'
p915
(dp916
g820
F0.064
ssS'qq.com'
p917
(dp918
g820
F0.0345
ssS'xinhuanet.com'
p919
(dp920
g820
F0.0575
ssS'cnzz.com'
p921
(dp922
g820
F0.055999999999999994
ssS'cntv.cn'
p923
(dp924
g820
F0.067
ssS'sina.com.cn'
p925
(dp926
g820
F0.0325
ssS'soso.com'
p927
(dp928
g820
F0.046
ssS'tmall.com'
p929
(dp930
g820
F0.052000000000000005
ssS'hao123.com'
p931
(dp932
g820
F0.04
sssg41
(dp933
g537
(dp934
g820
F0.23
sssg45
(dp935
g433
(dp936
g820
F0.07250000000000001
ssS'google.com.mx'
p937
(dp938
g820
F0.043
ssg581
(dp939
g820
F0.036000000000000004
ssS'google.com'
p940
(dp941
g820
F0.069
ssS'live.com'
p942
(dp943
g820
F0.046
ssg469
(dp944
g820
F0.038
ssg761
(dp945
g820
F0.028999999999999998
ssS'facebook.com'
p946
(dp947
g820
F0.034
ssg249
(dp948
g820
F0.048
ssg153
(dp949
g820
F0.1085
sssg49
(dp950
g265
(dp951
g820
F0.017
ssS'alibaba.com'
p952
(dp953
g820
F0.024
ssg689
(dp954
g820
F0.012
ssg277
(dp955
g820
F0.059000000000000004
ssg741
(dp956
g820
F0.027000000000000003
ssS'google.com'
p957
(dp958
g820
F0.019
ssg289
(dp959
g820
F0.126
ssg593
(dp960
g820
F0.01
ssg189
(dp961
g820
F0.16549999999999998
ssg665
(dp962
g820
F0.009000000000000001
sssg53
(dp963
g377
(dp964
g820
F0.006999999999999999
sssg57
(dp965
g393
(dp966
g820
F0.01
sssg61
(dp967
g900
(dp968
g820
F0.053500000000000006
ssg907
(dp969
g820
F0.041499999999999995
ssS'taobao.com'
p970
(dp971
g820
F0.033
ssS'360.com'
p972
(dp973
g820
F0.052500000000000005
ssS'360.cn'
p974
g930
sS'xinhuanet.com'
p975
(dp976
g820
F0.049
ssg557
(dp977
g820
F0.04
ssS'cntv.cn'
p978
(dp979
g820
F0.055499999999999994
ssg905
(dp980
g820
F0.044000000000000004
ssg921
(dp981
g820
F0.036500000000000005
sssg65
(dp982
S'weibo.com'
p983
(dp984
g820
F0.037000000000000005
ssS'baidu.com'
p985
(dp986
g820
F0.397
ssg911
(dp987
g820
F0.06249999999999999
ssS'taobao.com'
p988
(dp989
g820
F0.057
ssS'360.cn'
p990
g906
sS'qq.com'
p991
(dp992
g820
F0.07
ssS'sina.com.cn'
p993
(dp994
g820
F0.036000000000000004
ssg927
(dp995
g820
F0.0445
ssg929
g980
sS'hao123.com'
p996
(dp997
g820
F0.07
sssg69
(dp998
S'yahoo.com'
p999
(dp1000
g820
F0.039
ssg157
(dp1001
g820
F0.0115
ssS'bing.com'
p1002
(dp1003
g820
F0.01
ssg805
(dp1004
g820
F0.028999999999999998
ssS'reddit.com'
p1005
(dp1006
g820
F0.013999999999999999
ssS'youtube.com'
p1007
(dp1008
g820
F0.013999999999999999
ssS'google.com'
p1009
(dp1010
g820
F0.24
ssS'twitter.com'
p1011
(dp1012
g820
F0.01
ssS't.co'
p1013
(dp1014
g820
F0.012
ssS'cnn.com'
p1015
(dp1016
g820
F0.01
ssg477
(dp1017
g820
F0.012
ssS'facebook.com'
p1018
(dp1019
g820
F0.132
sssg73
(dp1020
g269
(dp1021
g820
F0.027999999999999997
sssg77
(dp1022
S'yahoo.co.jp'
p1023
(dp1024
g820
F0.059000000000000004
ssS'youtube.com'
p1025
(dp1026
g820
F0.006
ssS'google.com'
p1027
(dp1028
g820
F0.025
ssS'live.com'
p1029
(dp1030
g820
F0.006
ssS'amazon.co.jp'
p1031
(dp1032
g820
F0.02
ssS'rakuten.co.jp'
p1033
(dp1034
g820
F0.29800000000000004
ssS'google.co.jp'
p1035
(dp1036
g820
F0.092
ssS'infoseek.co.jp'
p1037
(dp1038
g820
F0.01
ssS'facebook.com'
p1039
(dp1040
g820
F0.005
ssg197
(dp1041
g820
F0.006
sssg81
(dp1042
S'dreevee.com'
p1043
(dp1044
g820
F0.022000000000000002
ssg269
(dp1045
g820
F0.027999999999999997
sssg85
(dp1046
S'yahoo.com'
p1047
(dp1048
g820
F0.005
ssg157
(dp1049
g820
F0.022000000000000002
ssS'nicovideo.jp'
p1050
(dp1051
g820
F0.015500000000000002
ssg805
(dp1052
g820
F0.063
ssS'infobae.com'
p1053
g841
sS'yahoo.co.jp'
p1054
(dp1055
g820
F0.006999999999999999
ssS'instagram.com'
p1056
(dp1057
g820
F0.045
ssS'youtube.com'
p1058
(dp1059
g820
F0.028999999999999998
ssS'google.com'
p1060
(dp1061
g820
F0.047
ssS'reddit.com'
p1062
(dp1063
g820
F0.006
ssS'espn.go.com'
p1064
(dp1065
g820
F0.013000000000000001
ssS'huffingtonpost.com'
p1066
g1014
sg477
(dp1067
g820
F0.024
ssS'twitter.com'
p1068
(dp1069
g820
F0.16650000000000004
ssg125
(dp1070
g820
F0.011000000000000001
ssg809
(dp1071
g820
F0.009000000000000001
ssS'facebook.com'
p1072
(dp1073
g820
F0.057
ssg429
(dp1074
g820
F0.01
ssg453
(dp1075
g820
F0.009000000000000001
ssg621
(dp1076
g820
F0.018000000000000002
sssg89
(dp1077
S'pinterest.com'
p1078
(dp1079
g820
F0.008
sssg93
(dp1080
g597
(dp1081
g820
F0.006
sssg97
(dp1082
g864
(dp1083
g820
F0.07
ssg33
g898
sg221
(dp1084
g820
F0.02
ssg525
(dp1085
g820
F0.009000000000000001
ssS'youtube.com'
p1086
(dp1087
g820
F0.03
ssS'google.com'
p1088
(dp1089
g820
F0.064
ssS'yahoo.com'
p1090
(dp1091
g820
F0.051
ssg797
(dp1092
g820
F0.013000000000000001
ssS'facebook.com'
p1093
(dp1094
g820
F0.17
ssg737
(dp1095
g820
F0.013999999999999999
sssg101
(dp1096
g822
(dp1097
g820
F0.013000000000000001
sssg105
(dp1098
g285
(dp1099
g820
F0.052
ssS'yahoo.co.jp'
p1100
(dp1101
g820
F0.039
ssS'rakuten.co.jp'
p1102
(dp1103
g820
F0.031
ssg529
(dp1104
g820
F0.022000000000000002
ssg357
(dp1105
g820
F0.023
ssg121
(dp1106
g820
F0.029500000000000002
ssg181
(dp1107
g820
F0.046
ssg1037
(dp1108
g820
F0.025
ssg721
(dp1109
g820
F0.04
ssS'google.co.jp'
p1110
(dp1111
g820
F0.023
sssg109
(dp1112
g545
(dp1113
g820
F0.015
sssg113
(dp1114
g49
g953
sg189
(dp1115
g820
F0.027000000000000003
sssg117
(dp1116
S'twitch.tv'
p1117
(dp1118
g820
F0.003
ssg861
(dp1119
g820
F0.313
ssS'youtube.com'
p1120
(dp1121
g820
F0.032
ssS'google.com'
p1122
(dp1123
g820
F0.026000000000000002
ssS'twitter.com'
p1124
(dp1125
g820
F0.008
ssg305
(dp1126
g820
F0.003
ssS'facebook.com'
p1127
(dp1128
g820
F0.016
ssg149
(dp1129
g820
F0.003
ssg145
(dp1130
g820
F0.07949999999999999
ssg257
(dp1131
g820
F0.004
sssg121
(dp1132
g677
(dp1133
g820
F0.1195
ssg565
(dp1134
g820
F0.055
ssg745
(dp1135
g820
F0.021
ssS'pex.jp'
p1136
(dp1137
g820
F0.0385
ssg105
g1106
sg697
(dp1138
g820
F0.034
ssg81
g1044
sS'warau.jp'
p1139
(dp1140
g820
F0.02
ssS'fruitmail.net'
p1141
(dp1142
g820
F0.022000000000000002
ssS'dietnavi.com'
p1143
(dp1144
g820
F0.027000000000000003
sssg125
(dp1145
S't.co'
p1146
g1070
ssg129
(dp1147
S'yahoo.com'
p1148
(dp1149
g820
F0.036000000000000004
ssg397
(dp1150
g820
F0.0205
ssS'reddit.com'
p1151
(dp1152
g820
F0.015
ssS'youtube.com'
p1153
(dp1154
g820
F0.016
ssS'google.com'
p1155
(dp1156
g820
F0.24100000000000002
ssS'amazon.com'
p1157
(dp1158
g820
F0.013999999999999999
ssS'espn.go.com'
p1159
(dp1160
g820
F0.0135
ssg1066
g1016
sS'facebook.com'
p1161
(dp1162
g820
F0.075
ssg809
(dp1163
g820
F0.013999999999999999
ssg429
(dp1164
g820
F0.1195
ssS'outbrain.com'
p1165
(dp1166
g820
F0.0305
sssg133
(dp1167
g824
(dp1168
g820
F0.006999999999999999
sssg137
(dp1169
g902
(dp1170
g820
F0.028000000000000004
ssg909
(dp1171
g820
F0.18550000000000003
ssg911
(dp1172
g820
F0.062
ssS'taobao.com'
p1173
(dp1174
g820
F0.055
ssS'360.cn'
p1175
g924
sS'qq.com'
p1176
(dp1177
g820
F0.126
ssg925
(dp1178
g820
F0.033
ssg385
(dp1179
g820
F0.0495
ssg61
g979
sS'hao123.com'
p1180
(dp1181
g820
F0.0405
sssg141
(dp1182
S'live.com'
p1183
(dp1184
g820
F0.01
sssg145
(dp1185
g213
(dp1186
g820
F0.005
ssg861
(dp1187
g820
F0.204
ssS'wikipedia.org'
p1188
g876
sS'youtube.com'
p1189
(dp1190
g820
F0.054000000000000006
ssS'google.com'
p1191
(dp1192
g820
F0.08800000000000001
ssg341
(dp1193
g820
F0.005
ssS'gfycat.com'
p1194
g1130
sS'twitter.com'
p1195
(dp1196
g820
F0.012
ssS'amazon.com'
p1197
(dp1198
g820
F0.006999999999999999
ssS'facebook.com'
p1199
(dp1200
g820
F0.05
sssg149
(dp1201
g1194
g1129
ssg153
(dp1202
S'yahoo.com'
p1203
(dp1204
g820
F0.017
ssS'google.com.mx'
p1205
(dp1206
g820
F0.01
ssS'google.es'
p1207
(dp1208
g820
F0.013000000000000001
ssS'youtube.com'
p1209
(dp1210
g820
F0.043
ssS'google.com'
p1211
(dp1212
g820
F0.051
ssS'live.com'
p1213
(dp1214
g820
F0.027000000000000003
ssg45
g949
sS'amazon.com'
p1215
(dp1216
g820
F0.009000000000000001
ssS'facebook.com'
p1217
(dp1218
g820
F0.071
ssg877
(dp1219
g820
F0.14150000000000001
sssg157
(dp1220
S'yahoo.com'
p1221
(dp1222
g820
F0.02
ssS'reddit.com'
p1223
(dp1224
g820
F0.015
ssS'youtube.com'
p1225
(dp1226
g820
F0.012
ssS'google.com'
p1227
(dp1228
g820
F0.284
ssS'amazon.com'
p1229
(dp1230
g820
F0.011000000000000001
ssg417
(dp1231
g820
F0.015
ssS't.co'
p1232
g1049
sg477
(dp1233
g820
F0.0165
ssS'facebook.com'
p1234
(dp1235
g820
F0.094
ssg69
g1001
ssg161
(dp1236
S'dmm.co.jp'
p1237
(dp1238
g820
F0.019
sssg165
(dp1239
g1050
(dp1240
g820
F0.02
sssg169
(dp1241
g437
(dp1242
g820
F0.01
sssg173
(dp1243
S'sina.com.cn'
p1244
(dp1245
g820
F0.046
ssg909
(dp1246
g820
F0.206
ssg911
(dp1247
g820
F0.064
ssS'taobao.com'
p1248
(dp1249
g820
F0.057
ssg1175
g916
sS'qq.com'
p1250
(dp1251
g820
F0.08800000000000001
ssS'weibo.com'
p1252
(dp1253
g820
F0.038
ssg927
(dp1254
g820
F0.0485
ssg929
g973
sS'hao123.com'
p1255
(dp1256
g820
F0.066
sssg177
(dp1257
g1183
(dp1258
g820
F0.021
ssg851
(dp1259
g820
F0.004
sssg181
(dp1260
g565
(dp1261
g820
F0.021
ssg105
g1107
ssg185
(dp1262
g285
(dp1263
g820
F0.038
sssg189
(dp1264
g113
g1115
sg569
(dp1265
g820
F0.013999999999999999
ssS'youtube.com'
p1266
(dp1267
g820
F0.035
ssS'google.com'
p1268
(dp1269
g820
F0.105
ssS'amazon.com'
p1270
(dp1271
g820
F0.015
ssg409
(dp1272
g820
F0.016
ssg657
(dp1273
g820
F0.018000000000000002
ssS'facebook.com'
p1274
(dp1275
g820
F0.035
ssg49
g961
sS'vk.com'
p1276
(dp1277
g820
F0.013999999999999999
ssS'ebay.com'
p1278
(dp1279
g820
F0.018000000000000002
sssg193
(dp1280
S'haosou.com'
p1281
(dp1282
g820
F0.0425
ssS'facebook.com'
p1283
(dp1284
g820
F0.021
ssg902
(dp1285
g820
F0.017
ssg907
(dp1286
g820
F0.079
ssg909
(dp1287
g820
F0.054000000000000006
ssg773
(dp1288
g820
F0.025
ssg289
(dp1289
g820
F0.0245
ssg972
g1256
sg1175
g932
sg917
(dp1290
g820
F0.041
ssg975
(dp1291
g820
F0.0395
ssg978
g1181
sg925
(dp1292
g820
F0.0325
ssS'youtube.com'
p1293
(dp1294
g820
F0.023
ssg905
g997
sg921
(dp1295
g820
F0.07200000000000001
ssg557
(dp1296
g820
F0.08
sssg197
(dp1297
g77
g1041
ssg201
(dp1298
S'yahoo.com'
p1299
(dp1300
g820
F0.026000000000000002
ssS'bing.com'
p1301
(dp1302
g820
F0.021
ssS'youtube.com'
p1303
(dp1304
g820
F0.03
ssg457
(dp1305
g820
F0.043
ssS'live.com'
p1306
(dp1307
g820
F0.021
ssS'paypal.com'
p1308
(dp1309
g820
F0.018000000000000002
ssS'google.co.uk'
p1310
(dp1311
g820
F0.0815
ssS'facebook.com'
p1312
(dp1313
g820
F0.052000000000000005
ssS'google.com'
p1314
(dp1315
g820
F0.06
ssS'ebay.com'
p1316
(dp1317
g820
F0.040999999999999995
sssg205
(dp1318
g1078
(dp1319
g820
F0.009000000000000001
sssg209
(dp1320
S'msn.com'
p1321
(dp1322
g820
F0.006999999999999999
sssg213
(dp1323
g145
g1186
sg1194
g1118
ssg217
(dp1324
g289
(dp1325
g820
F0.015
sssg221
(dp1326
g97
g1084
ssg225
(dp1327
S'yahoo.com'
p1328
(dp1329
g820
F0.036000000000000004
ssg855
(dp1330
g820
F0.021
ssS'google.co.in'
p1331
(dp1332
g820
F0.035
ssS'bing.com'
p1333
(dp1334
g820
F0.047
ssg577
(dp1335
g820
F0.019
ssS'google.com'
p1336
(dp1337
g820
F0.355
ssg777
(dp1338
g820
F0.017
ssS'google.co.uk'
p1339
(dp1340
g820
F0.027999999999999997
ssS'facebook.com'
p1341
(dp1342
g820
F0.013000000000000001
ssg605
(dp1343
g820
F0.017
ssg545
(dp1344
g820
F0.017
sssg229
(dp1345
g33
g890
ssg233
(dp1346
g353
(dp1347
g820
F0.018000000000000002
sssg237
(dp1348
S'wikipedia.org'
p1349
g869
ssg241
(dp1350
g1165
(dp1351
g820
F0.015
sssg245
(dp1352
S'amazon.co.jp'
p1353
(dp1354
g820
F0.016
ssg1033
(dp1355
g820
F0.013999999999999999
sssg249
(dp1356
g45
g948
ssg253
(dp1357
g851
(dp1358
g820
F0.011000000000000001
sssg257
(dp1359
g765
(dp1360
g820
F0.012
ssS'instagram.com'
p1361
(dp1362
g820
F0.006
ssS'youtube.com'
p1363
(dp1364
g820
F0.033
ssS'google.com'
p1365
(dp1366
g820
F0.037000000000000005
ssS'amazon.com'
p1367
(dp1368
g820
F0.006
ssg1194
g1131
sS'twitter.com'
p1369
(dp1370
g820
F0.01
ssg425
(dp1371
g820
F0.005
ssg333
(dp1372
g820
F0.19699999999999998
ssS'facebook.com'
p1373
(dp1374
g820
F0.02
ssS'media.tumblr.com'
p1375
(dp1376
g820
F0.005
sssg261
(dp1377
g625
(dp1378
g820
F0.0665
ssg1349
g870
sS'youtube.com'
p1379
(dp1380
g820
F0.027000000000000003
ssS'tsite.jp'
p1381
(dp1382
g820
F0.081
ssg381
(dp1383
g820
F0.009000000000000001
ssg1237
(dp1384
g820
F0.15
ssg105
g1111
sS'dmm.com'
p1385
(dp1386
g820
F0.098
ssg77
g1036
sS'twitter.com'
p1387
(dp1388
g820
F0.013999999999999999
ssg705
(dp1389
g820
F0.019
ssS'facebook.com'
p1390
(dp1391
g820
F0.011000000000000001
ssg485
(dp1392
g820
F0.027999999999999997
ssg853
(dp1393
g820
F0.0665
ssg645
(dp1394
g820
F0.07050000000000001
ssg565
(dp1395
g820
F0.027000000000000003
ssg769
(dp1396
g820
F0.016
ssS'google.com'
p1397
(dp1398
g820
F0.023
ssg785
(dp1399
g820
F0.08549999999999999
ssg353
(dp1400
g820
F0.034
ssg1037
(dp1401
g820
F0.038
ssg1136
(dp1402
g820
F0.018000000000000002
sssg265
(dp1403
g49
g951
ssg269
(dp1404
g565
(dp1405
g820
F0.239
ssg505
(dp1406
g820
F0.035
ssg73
g1021
sg1381
(dp1407
g820
F0.0405
ssg509
(dp1408
g820
F0.043
ssS'gamefactory.jp'
p1409
(dp1410
g820
F0.028999999999999998
ssS'a-q-f.com'
p1411
(dp1412
g820
F0.031
ssS'gendama.jp'
p1413
g1045
sg601
(dp1414
g820
F0.018000000000000002
ssS'yahoo.co.jp'
p1415
(dp1416
g820
F0.109
sssg273
(dp1417
g677
(dp1418
g820
F0.066
ssg285
(dp1419
g820
F0.049
ssg1381
(dp1420
g820
F0.013999999999999999
ssS'yahoo.co.jp'
p1421
(dp1422
g820
F0.05
ssS'google.com'
p1423
(dp1424
g820
F0.021
ssg693
(dp1425
g820
F0.024
ssS'rakuten.co.jp'
p1426
(dp1427
g820
F0.037000000000000005
ssg353
(dp1428
g820
F0.1495
ssS'pointtown.com'
p1429
(dp1430
g820
F0.02
ssg1043
g1137
sS'google.co.jp'
p1431
g1402
ssg277
(dp1432
g49
g955
ssg281
(dp1433
S'yahoo.com'
p1434
(dp1435
g820
F0.035
ssS'reddit.com'
p1436
(dp1437
g820
F0.019
ssS'youtube.com'
p1438
(dp1439
g820
F0.021
ssS'google.com'
p1440
(dp1441
g820
F0.20800000000000002
ssS'amazon.com'
p1442
(dp1443
g820
F0.013999999999999999
ssS'twitter.com'
p1444
(dp1445
g820
F0.021
ssS't.co'
p1446
g1065
sS'cnn.com'
p1447
g1160
sS'facebook.com'
p1448
(dp1449
g820
F0.083
ssg429
(dp1450
g820
F0.028999999999999998
ssg1165
(dp1451
g820
F0.019999999999999997
sssg285
(dp1452
g677
(dp1453
g820
F0.126
ssg565
(dp1454
g820
F0.032
ssg273
g1419
sg105
g1099
sg641
(dp1455
g820
F0.107
ssg269
g1410
sg653
(dp1456
g820
F0.038
ssg521
(dp1457
g820
F0.064
ssg185
g1263
sg353
(dp1458
g820
F0.013999999999999999
ssg613
(dp1459
g820
F0.040999999999999995
ssg553
(dp1460
g820
F0.027000000000000003
ssg725
(dp1461
g820
F0.04
sssg289
(dp1462
g900
(dp1463
g820
F0.057999999999999996
ssg864
(dp1464
g820
F0.01
ssS'weibo.com'
p1465
(dp1466
g820
F0.0235
ssg557
(dp1467
g820
F0.07200000000000001
ssg629
(dp1468
g820
F0.025
ssg907
(dp1469
g820
F0.07
ssg909
(dp1470
g820
F0.054000000000000006
ssg29
g880
sg773
(dp1471
g820
F0.032
ssg905
g989
sg217
g1325
sg972
g1249
sg37
g914
sS'qq.com'
p1472
(dp1473
g820
F0.041999999999999996
ssg975
(dp1474
g820
F0.051
ssg921
(dp1475
g820
F0.066
ssg978
g1174
sg49
g959
sS'google.com'
p1476
(dp1477
g820
F0.027000000000000003
ssg929
g971
sg193
g1289
ssg293
(dp1478
g561
(dp1479
g820
F0.057499999999999996
ssS'yahoo.com'
p1480
(dp1481
g820
F0.015
ssg1053
g837
sS'google.es'
p1482
(dp1483
g820
F0.013000000000000001
ssS'youtube.com'
p1484
(dp1485
g820
F0.027000000000000003
ssS'google.com'
p1486
(dp1487
g820
F0.062
ssS'live.com'
p1488
(dp1489
g820
F0.016
ssS'facebook.com'
p1490
(dp1491
g820
F0.09699999999999999
ssS'outbrain.com'
p1492
(dp1493
g820
F0.012
ssg877
(dp1494
g820
F0.0935
sssg297
(dp1495
g33
g893
sg513
(dp1496
g820
F0.006
sssg301
(dp1497
g1321
(dp1498
g820
F0.006999999999999999
ssg393
(dp1499
g820
F0.025
ssg17
g825
sg857
(dp1500
g820
F0.02
ssg822
(dp1501
g820
F0.045500000000000006
ssS'live.com'
p1502
(dp1503
g820
F0.0125
ssg417
(dp1504
g820
F0.013999999999999999
ssg397
(dp1505
g820
F0.013999999999999999
ssg433
(dp1506
g820
F0.013000000000000001
ssS'bing.com'
p1507
(dp1508
g820
F0.0075
ssS'etsy.com'
p1509
(dp1510
g820
F0.037000000000000005
ssg457
(dp1511
g820
F0.039
ssg874
(dp1512
g820
F0.0325
ssg257
g1368
sg855
(dp1513
g820
F0.008
ssS'reddit.com'
p1514
(dp1515
g820
F0.009000000000000001
ssg1064
g1443
sg1447
g1158
sg133
g1168
sg545
(dp1516
g820
F0.018000000000000002
ssg145
g1198
sg153
g1216
sg847
(dp1517
g820
F0.021500000000000002
ssg157
g1230
sg1078
(dp1518
g820
F0.016
ssg773
(dp1519
g820
F0.017
ssg333
(dp1520
g820
F0.008
ssg859
(dp1521
g820
F0.1205
ssg597
(dp1522
g820
F0.011000000000000001
ssg189
g1271
ssg305
(dp1523
g257
g1376
sg1194
g1126
ssg309
(dp1524
S'yahoo.com'
p1525
(dp1526
g820
F0.017
ssg925
(dp1527
g820
F0.011000000000000001
ssg773
(dp1528
g820
F0.034
ssS'wikipedia.org'
p1529
g865
sS'baidu.com'
p1530
(dp1531
g820
F0.021
ssS'google.com'
p1532
(dp1533
g820
F0.046
ssg513
(dp1534
g820
F0.027999999999999997
ssS'taobao.com'
p1535
g1464
sg381
(dp1536
g820
F0.028999999999999998
ssg917
(dp1537
g820
F0.011
ssS'youtube.com'
p1538
(dp1539
g820
F0.036000000000000004
ssS'facebook.com'
p1540
(dp1541
g820
F0.034
ssg97
g1083
ssg313
(dp1542
S'weibo.com'
p1543
(dp1544
g820
F0.035
ssS'baidu.com'
p1545
(dp1546
g820
F0.33399999999999996
ssg911
(dp1547
g820
F0.059500000000000004
ssS'taobao.com'
p1548
g1475
sS'360.cn'
p1549
g922
sS'qq.com'
p1550
(dp1551
g820
F0.061
ssS'sina.com.cn'
p1552
(dp1553
g820
F0.034
ssg927
(dp1554
g820
F0.0425
ssg929
g981
sS'hao123.com'
p1555
g1295
ssg317
(dp1556
S'yahoo.com'
p1557
(dp1558
g820
F0.019
ssg433
(dp1559
g820
F0.16549999999999998
ssS'wikipedia.org'
p1560
g856
sS'youtube.com'
p1561
(dp1562
g820
F0.078
ssS'google.com'
p1563
(dp1564
g820
F0.044000000000000004
ssg1183
(dp1565
g820
F0.014
ssS'amazon.com'
p1566
g1513
sS'twitter.com'
p1567
(dp1568
g820
F0.005
ssg153
g1206
sg45
g938
sg225
g1330
sS'facebook.com'
p1569
(dp1570
g820
F0.067
ssS'msn.com'
p1571
(dp1572
g820
F0.006999999999999999
sssg321
(dp1573
S'yahoo.com'
p1574
(dp1575
g820
F0.024
ssS'bing.com'
p1576
(dp1577
g820
F0.018000000000000002
ssS'twitter.com'
p1578
(dp1579
g820
F0.013999999999999999
ssS'youtube.com'
p1580
(dp1581
g820
F0.028999999999999998
ssg457
(dp1582
g820
F0.011
ssS'live.com'
p1583
(dp1584
g820
F0.013000000000000001
ssg1310
(dp1585
g820
F0.0895
ssg809
(dp1586
g820
F0.101
ssS'facebook.com'
p1587
(dp1588
g820
F0.07400000000000001
ssS'google.com'
p1589
(dp1590
g820
F0.081
sssg325
(dp1591
S'yahoo.com'
p1592
(dp1593
g820
F0.015
ssg205
g1319
sg1509
(dp1594
g820
F0.029500000000000002
ssg1056
(dp1595
g820
F0.006999999999999999
ssg333
(dp1596
g820
F0.009000000000000001
ssS'google.com'
p1597
(dp1598
g820
F0.20199999999999999
ssS'amazon.com'
p1599
g1518
sS'google.de'
p1600
(dp1601
g820
F0.009000000000000001
ssS'twitter.com'
p1602
(dp1603
g820
F0.012
ssg89
g1079
sS'youtube.com'
p1604
(dp1605
g820
F0.018000000000000002
ssS'facebook.com'
p1606
(dp1607
g820
F0.067
sssg329
(dp1608
S'yahoo.com'
p1609
(dp1610
g820
F0.009000000000000001
ssg325
g1595
sg861
(dp1611
g820
F0.0135
ssS'youtube.com'
p1612
(dp1613
g820
F0.055
ssS'google.com'
p1614
(dp1615
g820
F0.127
ssg333
(dp1616
g820
F0.01
ssg1068
(dp1617
g820
F0.0325
ssg1146
g1057
sS'google.co.uk'
p1618
(dp1619
g820
F0.006
ssg874
(dp1620
g820
F0.07
ssg609
(dp1621
g820
F0.008
ssg257
g1362
ssg333
(dp1622
S'yahoo.com'
p1623
(dp1624
g820
F0.009000000000000001
ssg1078
g1596
sS'reddit.com'
p1625
(dp1626
g820
F0.011000000000000001
ssS'instagram.com'
p1627
g1616
sS'youtube.com'
p1628
(dp1629
g820
F0.055
ssS'google.com'
p1630
(dp1631
g820
F0.122
ssS'wikipedia.org'
p1632
g849
sS'twitter.com'
p1633
(dp1634
g820
F0.028999999999999998
ssS'amazon.com'
p1635
g1520
sS'facebook.com'
p1636
(dp1637
g820
F0.07200000000000001
ssg257
g1372
ssg337
(dp1638
g33
g892
ssg341
(dp1639
g145
g1193
ssg345
(dp1640
g1037
(dp1641
g820
F0.016
sssg349
(dp1642
g902
(dp1643
g820
F0.025500000000000002
ssg909
(dp1644
g820
F0.198
ssg911
(dp1645
g820
F0.06
ssS'taobao.com'
p1646
g1474
sg1175
g920
sS'qq.com'
p1647
(dp1648
g820
F0.084
ssS'sina.com.cn'
p1649
(dp1650
g820
F0.042
ssg927
(dp1651
g820
F0.045
ssS'tmall.com'
p1652
g976
sg1180
g1291
ssg353
(dp1653
g677
(dp1654
g820
F0.17
ssS'gamefactory.jp'
p1655
g1458
sg233
g1347
sS'yahoo.co.jp'
p1656
(dp1657
g820
F0.045
ssS'google.com'
p1658
(dp1659
g820
F0.013999999999999999
ssg1136
g1428
sS'rakuten.co.jp'
p1660
(dp1661
g820
F0.013000000000000001
ssS'google.co.jp'
p1662
g1400
sg713
(dp1663
g820
F0.012
ssS'dietnavi.com'
p1664
(dp1665
g820
F0.012
sssg357
(dp1666
g105
g1105
ssg361
(dp1667
g1037
(dp1668
g820
F0.015
sssg365
(dp1669
g565
(dp1670
g820
F0.084
sssg369
(dp1671
g828
(dp1672
g820
F0.005
sssg373
(dp1673
g377
(dp1674
g820
F0.01
sssg377
(dp1675
g493
(dp1676
g820
F0.009000000000000001
ssg437
(dp1677
g820
F0.24
ssS'wikipedia.org'
p1678
g863
sS'youtube.com'
p1679
(dp1680
g820
F0.031
ssg859
(dp1681
g820
F0.04
ssg649
(dp1682
g820
F0.006
ssg225
g1332
sS'facebook.com'
p1683
(dp1684
g820
F0.0235
ssg373
g1674
sg53
g964
sS'indiatimes.com'
p1685
(dp1686
g820
F0.005
ssg673
(dp1687
g820
F0.006999999999999999
sssg381
(dp1688
S'google.com.tw'
p1689
g891
sS'google.com.hk'
p1690
g1536
sS'bing.com'
p1691
(dp1692
g820
F0.012
ssS'youtube.com'
p1693
(dp1694
g820
F0.019
ssS'google.com'
p1695
(dp1696
g820
F0.059000000000000004
ssS'yahoo.com'
p1697
(dp1698
g820
F0.077
ssS'google.co.jp'
p1699
g1383
sS'facebook.com'
p1700
(dp1701
g820
F0.039
ssg537
(dp1702
g820
F0.0225
ssg513
(dp1703
g820
F0.021
sssg385
(dp1704
S'haosou.com'
p1705
(dp1706
g820
F0.049
ssg445
(dp1707
g820
F0.046
ssS'baidu.com'
p1708
(dp1709
g820
F0.043
ssg972
g1254
sS'360.cn'
p1710
g928
sS'qq.com'
p1711
(dp1712
g820
F0.025
ssg975
g1651
sg557
(dp1713
g820
F0.076
ssg978
g1179
sS'china.com.cn'
p1714
g995
sS'cnzz.com'
p1715
g1554
ssg389
(dp1716
g847
(dp1717
g820
F0.012
ssg855
g1572
sg851
(dp1718
g820
F0.044
ssg681
(dp1719
g820
F0.005
ssS'youtube.com'
p1720
(dp1721
g820
F0.049
ssS'google.com'
p1722
(dp1723
g820
F0.054000000000000006
ssg1183
(dp1724
g820
F0.11599999999999999
ssg209
g1322
sS'amazon.com'
p1725
g1498
sS'facebook.com'
p1726
(dp1727
g820
F0.071
ssS'outbrain.com'
p1728
(dp1729
g820
F0.031
sssg393
(dp1730
S'yahoo.com'
p1731
(dp1732
g820
F0.008
ssg828
(dp1733
g820
F0.0935
ssS'youtube.com'
p1734
(dp1735
g820
F0.036000000000000004
ssS'google.com'
p1736
(dp1737
g820
F0.067
ssS'live.com'
p1738
(dp1739
g820
F0.019
ssg409
(dp1740
g820
F0.0295
ssS'amazon.com'
p1741
g1499
sS'facebook.com'
p1742
(dp1743
g820
F0.03
ssg57
g966
sS'amazon.co.uk'
p1744
(dp1745
g820
F0.012
sssg397
(dp1746
S'yahoo.com'
p1747
(dp1748
g820
F0.075
ssS'bing.com'
p1749
(dp1750
g820
F0.013999999999999999
ssg589
(dp1751
g820
F0.013000000000000001
ssS'youtube.com'
p1752
(dp1753
g820
F0.013000000000000001
ssS'google.com'
p1754
(dp1755
g820
F0.172
ssg417
(dp1756
g820
F0.022
ssg1447
g1150
sS'amazon.com'
p1757
g1505
sS'facebook.com'
p1758
(dp1759
g820
F0.068
ssg545
(dp1760
g820
F0.027999999999999997
ssg1165
(dp1761
g820
F0.064
ssg621
(dp1762
g820
F0.022000000000000002
sssg401
(dp1763
g847
(dp1764
g820
F0.018
ssS'bing.com'
p1765
(dp1766
g820
F0.01
ssS'slickdeals.net'
p1767
g823
sg101
g1097
sg1509
(dp1768
g820
F0.021
ssS'youtube.com'
p1769
(dp1770
g820
F0.025
ssg859
(dp1771
g820
F0.109
ssS'live.com'
p1772
(dp1773
g820
F0.011000000000000001
ssg409
(dp1774
g820
F0.043
ssg597
(dp1775
g820
F0.031
ssS'ebay.co.uk'
p1776
g1317
sg824
g1501
sS'facebook.com'
p1777
(dp1778
g820
F0.042
ssg189
g1279
ssg405
(dp1779
g1321
g1724
sg1776
g1307
sg1053
g835
sS'youtube.com'
p1780
(dp1781
g820
F0.027999999999999997
ssg822
g1773
sg409
(dp1782
g820
F0.02
ssg393
g1739
sg45
g943
sg433
(dp1783
g820
F0.03
ssS'bing.com'
p1784
(dp1785
g820
F0.0135
ssg1509
(dp1786
g820
F0.009000000000000001
ssg457
(dp1787
g820
F0.018000000000000002
ssg77
g1030
sg153
g1214
sg874
(dp1788
g820
F0.047
ssg317
g1565
sg836
g1489
sg824
g1503
sg141
g1184
sg877
(dp1789
g820
F0.013000000000000001
ssg847
(dp1790
g820
F0.0115
ssS'bbc.co.uk'
p1791
g1584
sg828
(dp1792
g820
F0.009000000000000001
ssS'google.com'
p1793
(dp1794
g820
F0.086
ssg177
g1258
sg561
(dp1795
g820
F0.012
ssg597
(dp1796
g820
F0.011000000000000001
ssg1310
(dp1797
g820
F0.009000000000000001
sssg409
(dp1798
S'yahoo.com'
p1799
(dp1800
g820
F0.011000000000000001
ssg393
g1740
sS'google.es'
p1801
(dp1802
g820
F0.19699999999999998
ssS'youtube.com'
p1803
(dp1804
g820
F0.025
ssS'google.com'
p1805
(dp1806
g820
F0.065
ssS'live.com'
p1807
g1782
sS'paypal.com'
p1808
(dp1809
g820
F0.039
ssg189
g1272
sS'facebook.com'
p1810
(dp1811
g820
F0.024
ssS'ebay.com'
p1812
g1774
ssg413
(dp1813
g828
(dp1814
g820
F0.005
sssg417
(dp1815
S'yahoo.com'
p1816
(dp1817
g820
F0.035
ssg157
g1231
sg397
g1756
sg805
(dp1818
g820
F0.1205
ssS'youtube.com'
p1819
(dp1820
g820
F0.019
ssS'google.com'
p1821
(dp1822
g820
F0.106
ssg477
(dp1823
g820
F0.018000000000000002
ssg453
(dp1824
g820
F0.028500000000000004
ssS'amazon.com'
p1825
g1504
sS'facebook.com'
p1826
(dp1827
g820
F0.043
ssg545
(dp1828
g820
F0.018000000000000002
ssg621
(dp1829
g820
F0.07100000000000001
sssg421
(dp1830
S'nicovideo.jp'
p1831
(dp1832
g820
F0.021
ssS'fc2.com'
p1833
(dp1834
g820
F0.032
ssg161
g1238
sS'yahoo.co.jp'
p1835
(dp1836
g820
F0.064
ssS'youtube.com'
p1837
(dp1838
g820
F0.022000000000000002
ssS'google.com'
p1839
(dp1840
g820
F0.019
ssg1385
(dp1841
g820
F0.08549999999999999
ssS'twitter.com'
p1842
(dp1843
g820
F0.015
ssg705
(dp1844
g820
F0.038
ssS'google.co.jp'
p1845
g1384
sS'amazon.co.jp'
p1846
(dp1847
g820
F0.021
ssg485
(dp1848
g820
F0.008
sssg425
(dp1849
g257
g1371
ssg429
(dp1850
S'yahoo.com'
p1851
(dp1852
g820
F0.038
ssS'bing.com'
p1853
(dp1854
g820
F0.013000000000000001
ssS'youtube.com'
p1855
(dp1856
g820
F0.018000000000000002
ssS'google.com'
p1857
(dp1858
g820
F0.182
ssg1064
g1450
sS'twitter.com'
p1859
(dp1860
g820
F0.017
ssS't.co'
p1861
g1074
sg1447
g1164
sS'facebook.com'
p1862
(dp1863
g820
F0.054000000000000006
ssS'outbrain.com'
p1864
(dp1865
g820
F0.019
sssg433
(dp1866
g855
g1559
sS'yahoo.com'
p1867
(dp1868
g820
F0.02
ssS'bing.com'
p1869
(dp1870
g820
F0.012
ssS'google.es'
p1871
(dp1872
g820
F0.01
ssS'youtube.com'
p1873
(dp1874
g820
F0.043
ssS'google.com'
p1875
(dp1876
g820
F0.05
ssS'live.com'
p1877
g1783
sg45
g936
sS'amazon.com'
p1878
g1506
sS'facebook.com'
p1879
(dp1880
g820
F0.05
sssg437
(dp1881
g377
g1677
sg749
(dp1882
g820
F0.013999999999999999
ssg25
g850
sg633
(dp1883
g820
F0.018000000000000002
ssg781
(dp1884
g820
F0.12300000000000001
ssg169
g1242
sg617
(dp1885
g820
F0.027000000000000003
ssg541
(dp1886
g820
F0.01
ssg717
(dp1887
g820
F0.062
ssg585
(dp1888
g820
F0.026000000000000002
sssg441
(dp1889
g705
(dp1890
g820
F0.027000000000000003
sssg445
(dp1891
S'weibo.com'
p1892
(dp1893
g820
F0.038
ssS'baidu.com'
p1894
(dp1895
g820
F0.35200000000000004
ssS'sohu.com'
p1896
(dp1897
g820
F0.11699999999999999
ssS'taobao.com'
p1898
g1469
sS'360.cn'
p1899
g908
sS'qq.com'
p1900
(dp1901
g820
F0.063
ssS'sina.com.cn'
p1902
(dp1903
g820
F0.03
ssg927
g1707
sg929
g969
sS'hao123.com'
p1904
g1286
ssg449
(dp1905
S'yahoo.com'
p1906
(dp1907
g820
F0.02
ssg1078
g1594
sS'youtube.com'
p1908
(dp1909
g820
F0.017
ssS'ebay.com'
p1910
g1768
sS'live.com'
p1911
g1786
sg597
(dp1912
g820
F0.0165
ssg1310
(dp1913
g820
F0.008
ssS'amazon.com'
p1914
g1510
sS'facebook.com'
p1915
(dp1916
g820
F0.076
ssS'google.com'
p1917
(dp1918
g820
F0.265
sssg453
(dp1919
S'yahoo.com'
p1920
(dp1921
g820
F0.016
ssS'bing.com'
p1922
(dp1923
g820
F0.011000000000000001
ssS'twitter.com'
p1924
(dp1925
g820
F0.01
ssS'reddit.com'
p1926
(dp1927
g820
F0.019
ssS'youtube.com'
p1928
(dp1929
g820
F0.021
ssS'google.com'
p1930
(dp1931
g820
F0.205
ssg417
g1824
sS'google.co.uk'
p1932
(dp1933
g820
F0.057999999999999996
ssS't.co'
p1934
g1075
sS'facebook.com'
p1935
(dp1936
g820
F0.084
sssg457
(dp1937
S'yahoo.com'
p1938
(dp1939
g820
F0.023
ssg1776
g1305
sg1791
g1582
sS'youtube.com'
p1940
(dp1941
g820
F0.035
ssS'google.com'
p1942
(dp1943
g820
F0.07
ssS'live.com'
p1944
g1787
sS'bing.com'
p1945
(dp1946
g820
F0.016
ssg1310
(dp1947
g820
F0.08199999999999999
ssS'amazon.com'
p1948
g1511
sg393
g1745
sS'facebook.com'
p1949
(dp1950
g820
F0.04
sssg461
(dp1951
g1050
(dp1952
g820
F0.06
ssS'fc2.com'
p1953
(dp1954
g820
F0.017
ssS'yahoo.co.jp'
p1955
(dp1956
g820
F0.06
ssS'youtube.com'
p1957
(dp1958
g820
F0.038
ssS'google.com'
p1959
(dp1960
g820
F0.037000000000000005
ssS'amazon.co.jp'
p1961
(dp1962
g820
F0.025
ssg1237
g1841
sS'twitter.com'
p1963
(dp1964
g820
F0.044000000000000004
ssS'google.co.jp'
p1965
g1386
sg549
(dp1966
g820
F0.018000000000000002
ssg485
(dp1967
g820
F0.006
sssg465
(dp1968
g1033
(dp1969
g820
F0.016
sssg469
(dp1970
g45
g944
ssg473
(dp1971
g1050
(dp1972
g820
F0.057
ssg1053
g839
sg857
(dp1973
g820
F0.0275
ssg1237
g1843
sS'linkedin.com'
p1974
(dp1975
g820
F0.009000000000000001
ssg1066
g1012
sS'reddit.com'
p1976
(dp1977
g820
F0.020000000000000004
ssg1385
g1964
sg453
g1925
sg1146
g1069
sg477
(dp1978
g820
F0.011000000000000001
ssg874
(dp1979
g820
F0.053
ssg257
g1370
sg855
g1568
sg805
(dp1980
g820
F0.012
ssg853
(dp1981
g820
F0.012
ssg1064
g1445
sg1194
g1125
sg828
(dp1982
g820
F0.008
ssg429
g1860
sg145
g1196
sg877
(dp1983
g820
F0.009000000000000001
ssS'yahoo.com'
p1984
(dp1985
g820
F0.009000000000000001
ssg1791
g1579
sg1078
g1603
sS'instagram.com'
p1986
g1617
sg333
g1634
sg859
(dp1987
g820
F0.061
ssg1353
(dp1988
g820
F0.017
ssg561
(dp1989
g820
F0.015
ssg1310
(dp1990
g820
F0.009000000000000001
ssg261
g1388
sg621
(dp1991
g820
F0.017
sssg477
(dp1992
S'yahoo.com'
p1993
(dp1994
g820
F0.087
ssg157
g1233
sS'reddit.com'
p1995
(dp1996
g820
F0.025
ssS'youtube.com'
p1997
(dp1998
g820
F0.009000000000000001
ssS'google.com'
p1999
(dp2000
g820
F0.262
ssg1066
g1017
sS'drudgereport.com'
p2001
g1823
sS'twitter.com'
p2002
g1978
sS't.co'
p2003
g1067
sS'facebook.com'
p2004
(dp2005
g820
F0.095
sssg481
(dp2006
g1349
g873
sg857
(dp2007
g820
F0.01
ssg1078
g1601
ssg485
(dp2008
S'fc2.com'
p2009
(dp2010
g820
F0.006999999999999999
ssg461
g1967
sS'yahoo.co.jp'
p2011
(dp2012
g820
F0.071
ssS'youtube.com'
p2013
(dp2014
g820
F0.01
ssS'google.com'
p2015
(dp2016
g820
F0.013999999999999999
ssg1381
(dp2017
g820
F0.3295
ssS'amazon.co.jp'
p2018
(dp2019
g820
F0.017
ssg421
g1848
sg705
(dp2020
g820
F0.18
ssS'google.co.jp'
p2021
g1392
ssg489
(dp2022
g902
(dp2023
g820
F0.027
ssg909
(dp2024
g820
F0.20650000000000002
ssg911
(dp2025
g820
F0.064
ssS'taobao.com'
p2026
g1463
sS'360.cn'
p2027
g901
sS'qq.com'
p2028
(dp2029
g820
F0.091
ssS'sina.com.cn'
p2030
(dp2031
g820
F0.046
ssg927
g1706
sg929
g968
sg1180
g1282
ssg493
(dp2032
g389
g1717
sg1776
g1300
sg397
g1748
sS'wikipedia.org'
p2033
g848
sg857
(dp2034
g820
F0.020000000000000004
ssS'ebay.com'
p2035
g1764
sS'live.com'
p2036
g1790
sg409
g1800
sg33
g883
sg417
g1817
sg864
g1526
sg393
g1732
sg513
(dp2037
g820
F0.063
ssg225
g1329
sS'linkedin.com'
p2038
(dp2039
g820
F0.005
ssg433
g1868
sg377
g1676
sS'bing.com'
p2040
(dp2041
g820
F0.0105
ssg1509
g1907
sg1066
g1000
sg457
g1939
sg1068
g1985
sg1146
g1048
sg877
(dp2042
g820
F0.016
ssg477
g1994
sg874
(dp2043
g820
F0.0415
ssg97
g1091
sg561
(dp2044
g820
F0.013000000000000001
ssg805
(dp2045
g820
F0.034
ssg453
g1921
sg1064
g1435
sg381
g1698
sg836
g1481
sg1447
g1149
sg824
g1517
sg537
(dp2046
g820
F0.013000000000000001
ssg429
g1852
sg545
(dp2047
g820
F0.032
ssg153
g1204
sg855
g1558
sg157
g1222
sg1791
g1575
sg1078
g1593
sg1056
g1610
sg333
g1624
sg859
(dp2048
g820
F0.058499999999999996
ssg828
(dp2049
g820
F0.008
ssg597
(dp2050
g820
F0.016
ssg1310
(dp2051
g820
F0.01
ssg809
(dp2052
g820
F0.021
ssg1165
(dp2053
g820
F0.006999999999999999
ssg621
(dp2054
g820
F0.019
sssg497
(dp2055
g537
(dp2056
g820
F0.011000000000000001
sssg501
(dp2057
g537
(dp2058
g820
F0.028999999999999998
sssg505
(dp2059
g269
g1406
ssg509
(dp2060
g269
g1408
ssg513
(dp2061
g33
g894
sS'yahoo.com'
p2062
g2037
sS'bing.com'
p2063
(dp2064
g820
F0.009000000000000001
ssS'youtube.com'
p2065
(dp2066
g820
F0.018000000000000002
ssS'google.com'
p2067
(dp2068
g820
F0.071
ssg381
g1703
sS'google.com.hk'
p2069
g1534
sg661
(dp2070
g820
F0.006999999999999999
ssS'ptt.cc'
p2071
g1496
sS'facebook.com'
p2072
(dp2073
g820
F0.067
sssg517
(dp2074
g561
(dp2075
g820
F0.012
sssg521
(dp2076
g285
g1457
ssg525
(dp2077
g97
g1085
ssg529
(dp2078
g105
g1104
ssg533
(dp2079
g677
(dp2080
g820
F0.052000000000000005
sssg537
(dp2081
S'google.com.tw'
p2082
g895
sS'yahoo.com'
p2083
g2046
sg497
g2056
sg501
g2058
sS'youtube.com'
p2084
(dp2085
g820
F0.091
ssS'google.com'
p2086
(dp2087
g820
F0.027000000000000003
ssg381
g1702
sg41
g934
sS'facebook.com'
p2088
(dp2089
g820
F0.207
ssg789
(dp2090
g820
F0.013999999999999999
sssg541
(dp2091
g437
g1886
ssg545
(dp2092
S'yahoo.com'
p2093
g2047
sS'bing.com'
p2094
(dp2095
g820
F0.01
ssS'foxnews.com'
p2096
g1760
sg805
(dp2097
g820
F0.029
ssg109
g1113
sS'google.com'
p2098
(dp2099
g820
F0.11199999999999999
ssg225
g1344
sS'drudgereport.com'
p2100
g1828
sS'amazon.com'
p2101
g1516
sS'facebook.com'
p2102
(dp2103
g820
F0.038
sssg549
(dp2104
g1385
g1966
ssg553
(dp2105
g285
g1460
sg1043
g1142
ssg557
(dp2106
S'weibo.com'
p2107
(dp2108
g820
F0.037000000000000005
ssS'baidu.com'
p2109
(dp2110
g820
F0.37799999999999995
ssS'sohu.com'
p2111
(dp2112
g820
F0.11900000000000001
ssS'taobao.com'
p2113
g1467
sS'360.cn'
p2114
g904
sS'qq.com'
p2115
(dp2116
g820
F0.057999999999999996
ssS'sina.com.cn'
p2117
(dp2118
g820
F0.03
ssS'soso.com'
p2119
g1713
sg929
g977
sS'hao123.com'
p2120
g1296
ssg561
(dp2121
S'yahoo.com'
p2122
g2044
sg21
g827
sS'youtube.com'
p2123
(dp2124
g820
F0.024
ssS'google.com'
p2125
(dp2126
g820
F0.078
ssS'live.com'
p2127
g1795
sg517
g2075
sg836
g1479
sS'twitter.com'
p2128
g1989
sS'facebook.com'
p2129
(dp2130
g820
F0.086
ssg877
(dp2131
g820
F0.09700000000000002
sssg565
(dp2132
S'gamefactory.jp'
p2133
g1454
sS'yahoo.co.jp'
p2134
(dp2135
g820
F0.043
ssS'google.com'
p2136
(dp2137
g820
F0.024
ssS'tsite.jp'
p2138
(dp2139
g820
F0.025
ssg269
g1405
sg1043
g1134
sS'google.co.jp'
p2140
g1395
sg365
g1670
sg709
(dp2141
g820
F0.141
ssS'media-ad.jp'
p2142
g1261
ssg569
(dp2143
g189
g1265
ssg573
(dp2144
g705
(dp2145
g820
F0.01
sssg577
(dp2146
g433
g1872
sS'yahoo.com'
p2147
g2049
sg413
g1814
sg393
g1733
sg369
g1672
sg1053
g829
sS'wikipedia.org'
p2148
g866
sS'youtube.com'
p2149
(dp2150
g820
F0.042
ssS'google.com'
p2151
(dp2152
g820
F0.049
ssS'live.com'
p2153
g1792
sg409
g1802
sg836
g1483
sS'twitter.com'
p2154
g1982
sg225
g1335
sS'facebook.com'
p2155
(dp2156
g820
F0.031
ssg153
g1208
ssg581
(dp2157
g45
g939
ssg585
(dp2158
g437
g1888
sg377
g1686
ssg589
(dp2159
g397
g1751
ssg593
(dp2160
g309
g1537
sg900
g2029
sg925
(dp2161
g820
F0.0445
ssg905
g992
sg907
g1901
sg909
(dp2162
g820
F0.10300000000000001
ssS'google.com'
p2163
(dp2164
g820
F0.037000000000000005
ssg972
g1251
sg289
g1473
sg773
(dp2165
g820
F0.061
ssg927
g1712
sS'360.cn'
p2166
g918
sg975
g1648
sg557
g2116
sg978
g1177
sg757
(dp2167
g820
F0.011000000000000001
ssg49
g960
sS'weibo.com'
p2168
(dp2169
g820
F0.0325
ssg637
(dp2170
g820
F0.017
ssg921
g1551
sS'hao123.com'
p2171
g1290
ssg597
(dp2172
S'yahoo.com'
p2173
g2050
sg1776
g1309
sg449
g1912
sS'youtube.com'
p2174
(dp2175
g820
F0.012
ssg822
g1775
sg1183
g1796
sg409
g1809
sg701
(dp2176
g820
F0.006999999999999999
ssg93
g1081
sS'amazon.com'
p2177
g1522
sS'facebook.com'
p2178
(dp2179
g820
F0.036000000000000004
ssS'google.com'
p2180
(dp2181
g820
F0.135
sssg601
(dp2182
g269
g1414
ssg605
(dp2183
g225
g1343
ssg609
(dp2184
g1056
g1621
sg189
g1277
ssg613
(dp2185
g285
g1459
sg1043
g1140
ssg617
(dp2186
g1321
g1729
sS'yahoo.com'
p2187
g2053
sg437
g1885
sg397
g1761
sS'google.com'
p2188
(dp2189
g820
F0.021
ssg281
g1451
sg836
g1493
sS'cnn.com'
p2190
g1166
sg241
g1351
sS'facebook.com'
p2191
(dp2192
g820
F0.021
ssg809
(dp2193
g820
F0.0115
ssg429
g1865
sg733
(dp2194
g820
F0.042
sssg621
(dp2195
S'yahoo.com'
p2196
g2054
sS'bing.com'
p2197
(dp2198
g820
F0.012
ssS'foxnews.com'
p2199
g1762
sS'reddit.com'
p2200
(dp2201
g820
F0.017
ssS'youtube.com'
p2202
(dp2203
g820
F0.019
ssS'google.com'
p2204
(dp2205
g820
F0.147
ssg417
g1829
sS'twitter.com'
p2206
g1991
sS't.co'
p2207
g1076
sS'facebook.com'
p2208
(dp2209
g820
F0.085
sssg625
(dp2210
S'fc2.com'
p2211
(dp2212
g820
F0.026000000000000002
ssg853
(dp2213
g820
F0.030500000000000003
ssS'youtube.com'
p2214
(dp2215
g820
F0.065
ssS'google.com'
p2216
(dp2217
g820
F0.016
ssg1385
g1952
sg1237
g1832
sg1068
g1972
sg85
g1051
sg261
g1378
sg669
(dp2218
g820
F0.013999999999999999
ssg165
g1240
sg1353
(dp2219
g820
F0.0195
sssg629
(dp2220
g864
g1527
sg900
g2031
sg902
(dp2221
g820
F0.084
ssg907
g1903
sg909
(dp2222
g820
F0.09799999999999999
ssS'google.com'
p2223
(dp2224
g820
F0.064
ssg773
(dp2225
g820
F0.018000000000000002
ssg289
g1468
sg972
g1245
sS'360.cn'
p2226
g926
sg917
g2161
sg975
g1650
sg557
g2118
sg905
g994
sS'cntv.cn'
p2227
g1178
sS'sohu.com'
p2228
(dp2229
g820
F0.0225
ssg921
g1553
sS'hao123.com'
p2230
g1292
ssg633
(dp2231
g1321
g1721
sg1050
g2215
sg1776
g1304
sg397
g1753
sg1053
g831
sS'wikipedia.org'
p2232
g858
sg822
g1770
sg1183
g1781
sg409
g1804
sg1033
(dp2233
g820
F0.013999999999999999
ssg417
g1820
sg1237
g1838
sg393
g1735
sg513
g2066
sg433
g1874
sg437
g1883
sS'bing.com'
p2234
(dp2235
g820
F0.023500000000000004
ssg1509
g1909
sg1066
g1008
sg457
g1941
sg853
(dp2236
g820
F0.027000000000000003
ssg1385
g1958
sg77
g1026
sg874
(dp2237
g820
F0.0775
ssS'twitter.com'
p2238
g1973
sg1146
g1059
sg877
(dp2239
g820
F0.075
ssg477
g1998
sg481
g2007
sg97
g1087
sg485
g2014
sg1180
g1294
sg855
g1562
sS'reddit.com'
p2240
(dp2241
g820
F0.037
ssg453
g1929
sg1064
g1439
sg377
g1680
sg1194
g1121
sg836
g1485
sg1447
g1154
sg828
g2150
sS'amazon.com'
p2242
g1500
sg537
g2085
sg429
g1856
sg864
g1539
sg145
g1190
sg153
g1210
sg257
g1364
sg847
g2034
sg157
g1226
sg33
g887
sg1791
g1581
sg1078
g1605
sg1056
g1613
sg333
g1629
sg859
(dp2243
g820
F0.10750000000000001
ssg1353
(dp2244
g820
F0.035
ssg561
g2124
sg597
g2175
sg1310
(dp2245
g820
F0.04
ssg261
g1380
sg1037
(dp2246
g820
F0.013000000000000001
ssg189
g1267
sg809
(dp2247
g820
F0.019
ssg381
g1694
sg621
g2203
ssg637
(dp2248
S'haosou.com'
p2249
g2025
sg925
g2229
sg907
g1897
sS'baidu.com'
p2250
(dp2251
g820
F0.09300000000000001
ssS'360.com'
p2252
g1247
sg1175
g912
sg917
g2170
sS'xinhuanet.com'
p2253
g1645
sg557
g2112
sg978
g1172
sg65
g987
sg313
g1547
ssg641
(dp2254
g565
g2139
sg269
g1407
sS'yahoo.co.jp'
p2255
(dp2256
g820
F0.16699999999999998
ssS'google.com'
p2257
(dp2258
g820
F0.044000000000000004
ssS'pex.jp'
p2259
g1420
sS'amazon.co.jp'
p2260
(dp2261
g820
F0.022000000000000002
ssg285
g1455
sS'rakuten.co.jp'
p2262
(dp2263
g820
F0.022000000000000002
ssS'ecnavi.jp'
p2264
(dp2265
g820
F0.013000000000000001
ssg705
(dp2266
g820
F0.314
ssS'google.co.jp'
p2267
g1382
sg485
g2017
ssg645
(dp2268
g677
(dp2269
g820
F0.048
ssg1381
g2263
sg853
(dp2270
g820
F0.061
ssS'youtube.com'
p2271
g2233
sS'google.com'
p2272
(dp2273
g820
F0.034
ssg105
g1103
sg1353
(dp2274
g820
F0.044000000000000004
ssg465
g1969
sg77
g1034
sg353
g1661
sg261
g1394
sg801
(dp2275
g820
F0.10849999999999999
ssS'kakaku.com'
p2276
g1355
sS'facebook.com'
p2277
(dp2278
g820
F0.01
ssg1136
g1427
ssg649
(dp2279
g377
g1682
ssg653
(dp2280
g285
g1456
ssg657
(dp2281
g189
g1273
ssg661
(dp2282
g513
g2070
ssg665
(dp2283
g49
g962
ssg669
(dp2284
g1050
g2218
ssg673
(dp2285
g847
g2039
sg377
g1687
sg1068
g1975
sg859
(dp2286
g820
F0.006999999999999999
sssg677
(dp2287
g8
g819
sg285
g1453
sg1381
g2265
sS'yahoo.co.jp'
p2288
(dp2289
g820
F0.051
ssS'google.com'
p2290
(dp2291
g820
F0.024
ssS'pex.jp'
p2292
g1418
sS'amazon.co.jp'
p2293
(dp2294
g820
F0.016
ssS'rakuten.co.jp'
p2295
g2269
sg353
g1654
sS'dreevee.com'
p2296
g1133
sg533
g2080
ssg681
(dp2297
g1321
g1719
sS'nicovideo.jp'
p2298
g2213
sS'wikipedia.org'
p2299
g854
sS'youtube.com'
p2300
g2236
sg1381
g2256
sS'rakuten.co.jp'
p2301
g2270
sg1237
g1836
sg677
g2289
sg1136
g1422
sg1385
g1956
sg77
g1024
sS'twitter.com'
p2302
g1981
sg705
(dp2303
g820
F0.049
ssS'facebook.com'
p2304
(dp2305
g820
F0.017
ssg485
g2012
sg269
g1416
sg105
g1101
sg565
g2135
sS'fc2.com'
p2306
(dp2307
g820
F0.013999999999999999
ssS'google.com'
p2308
(dp2309
g820
F0.026000000000000002
ssg1353
(dp2310
g820
F0.065
ssg353
g1657
sg261
g1393
sg1037
(dp2311
g820
F0.08
ssg1146
g1055
ssg685
(dp2312
g1321
g1718
sg1776
g1302
sg397
g1750
sg1349
g852
sg857
g2235
sg822
g1766
sg1183
g1785
sg513
g2064
sg225
g1334
sg433
g1870
sg1066
g1003
sg457
g1946
sg453
g1923
sg874
(dp2313
g820
F0.022
ssg253
g1358
sg805
(dp2314
g820
F0.012
ssg381
g1692
sg824
g1508
sg429
g1854
sg545
g2095
sg847
g2041
sg1791
g1577
sS'google.com'
p2315
(dp2316
g820
F0.031
ssS'microsoft.com'
p2317
g1259
sg809
(dp2318
g820
F0.009000000000000001
ssg621
g2198
ssg689
(dp2319
S'haosou.com'
p2320
g2023
sg925
g2221
sg907
g1893
sS'baidu.com'
p2321
(dp2322
g820
F0.087
ssS'google.com'
p2323
(dp2324
g820
F0.039
ssg289
g1466
sg972
g1253
sg1175
g903
sg917
g2169
sS'xinhuanet.com'
p2325
g1643
sg557
g2108
sS'cntv.cn'
p2326
g1170
sg49
g954
sg905
g984
sg921
g1544
sS'hao123.com'
p2327
g1285
ssg693
(dp2328
g1136
g1425
ssg697
(dp2329
g1043
g1138
sg269
g1412
ssg701
(dp2330
S'yahoo.com'
p2331
g2051
sg201
g1311
sg321
g1585
sg1509
g1913
sg861
(dp2332
g820
F0.006999999999999999
ssg1349
g868
sS'youtube.com'
p2333
g2245
sS'google.com'
p2334
(dp2335
g820
F0.037000000000000005
ssS'live.com'
p2336
g1797
sg1056
g1619
sg597
g2176
sS'twitter.com'
p2337
g1990
sg225
g1340
sS'facebook.com'
p2338
(dp2339
g820
F0.034
ssg457
g1947
sg453
g1933
ssg705
(dp2340
g441
g1890
sg573
g2145
sS'yahoo.co.jp'
p2341
g2303
sS'tsite.jp'
p2342
g2266
sS'amazon.co.jp'
p2343
(dp2344
g820
F0.009000000000000001
ssg1237
g1844
sS'fc2.com'
p2345
(dp2346
g820
F0.013999999999999999
ssS'google.co.jp'
p2347
g1389
sg729
(dp2348
g820
F0.021
ssg485
g2020
ssg709
(dp2349
g565
g2141
ssg713
(dp2350
g353
g1663
ssg717
(dp2351
g1321
g1727
sg1776
g1313
sg397
g1759
sg1053
g843
sS'wikipedia.org'
p2352
g875
sg857
g2237
sg822
g1778
sg405
g1788
sg409
g1811
sg1033
g2278
sg417
g1827
sg864
g1541
sg393
g1743
sg45
g947
sg225
g1342
sg433
g1880
sg437
g1887
sg685
g2313
sg1509
g1916
sg1066
g1019
sg457
g1950
sg861
(dp2353
g820
F0.045
ssg77
g1040
sS'twitter.com'
p2354
g1979
sg1146
g1073
sg877
(dp2355
g820
F0.069
ssg477
g2005
sg513
g2073
sg97
g1094
sg257
g1374
sg1180
g1284
sg855
g1570
sg805
(dp2356
g820
F0.04
ssg853
g2305
sg453
g1936
sg1064
g1449
sg377
g1684
sg1194
g1128
sg836
g1491
sg1447
g1162
sg828
g2156
sS'amazon.com'
p2357
g1512
sg537
g2089
sg429
g1863
sg545
g2103
sg145
g1200
sg153
g1218
sS'yahoo.com'
p2358
g2043
sg157
g1235
sg33
g897
sg1791
g1588
sg1078
g1607
sg773
(dp2359
g820
F0.01
ssg329
g1620
sg333
g1637
sg859
(dp2360
g820
F0.0795
ssg1353
(dp2361
g820
F0.017
ssg561
g2130
sg597
g2179
sg1310
g2339
sg261
g1391
sg189
g1275
sg809
(dp2362
g820
F0.073
ssg381
g1701
sg1165
g2192
sg621
g2209
ssg721
(dp2363
g105
g1109
ssg725
(dp2364
g285
g1461
sg1043
g1144
sg353
g1665
ssg729
(dp2365
g705
g2348
ssg733
(dp2366
g1165
g2194
ssg737
(dp2367
g97
g1095
ssg741
(dp2368
g489
g2024
sg864
g1531
sS'sina.com.cn'
p2369
g2222
sg905
g986
sg907
g1895
sS'google.com'
p2370
(dp2371
g820
F0.027000000000000003
ssg773
(dp2372
g820
F0.133
ssg289
g1470
sg173
g1246
sS'360.cn'
p2373
g910
sg917
g2162
sg349
g1644
sg927
g1709
sg557
g2110
sg137
g1171
sg49
g956
sg902
g2322
sg911
g2251
sg921
g1546
sS'hao123.com'
p2374
g1287
ssg745
(dp2375
g1043
g1135
ssg749
(dp2376
S'wikipedia.org'
p2377
g862
sg857
g2241
sg437
g1882
sg1066
g1006
sg1068
g1977
sg1146
g1063
sg477
g1996
sS'facebook.com'
p2378
g2353
sg805
(dp2379
g820
F0.037000000000000005
ssg453
g1927
sg1064
g1437
sg117
g1119
sg1447
g1152
sg824
g1515
sg145
g1187
sg157
g1224
sg1056
g1611
sg333
g1626
sg859
(dp2380
g820
F0.065
ssS'google.co.uk'
p2381
g2332
sg809
(dp2382
g820
F0.023
ssg621
g2201
ssg753
(dp2383
g33
g884
ssg757
(dp2384
g917
g2167
ssg761
(dp2385
S'yahoo.com'
p2386
g2042
sg561
g2131
sg1053
g845
sS'wikipedia.org'
p2387
g878
sS'youtube.com'
p2388
g2239
sS'google.com'
p2389
(dp2390
g820
F0.04
ssS'live.com'
p2391
g1789
sg293
g1494
sS'twitter.com'
p2392
g1983
sg45
g945
sS'facebook.com'
p2393
g2355
sg153
g1219
ssg765
(dp2394
g257
g1360
ssg769
(dp2395
g1050
g2212
sg853
g2307
sg1385
g1954
sg1353
(dp2396
g820
F0.012
ssg1237
g1834
sg705
g2346
sg261
g1396
sg485
g2010
ssg773
(dp2397
g864
g1528
sS'sina.com.cn'
p2398
g2225
sS'baidu.com'
p2399
g2372
sS'google.com'
p2400
(dp2401
g820
F0.071
ssS'taobao.com'
p2402
g1471
sS'360.cn'
p2403
g913
sS'qq.com'
p2404
g2165
sS'amazon.com'
p2405
g1519
sS'facebook.com'
p2406
g2359
sS'hao123.com'
p2407
g1288
ssg777
(dp2408
g225
g1338
ssg781
(dp2409
g1321
g1723
sg1050
g2217
sg1776
g1315
sg397
g1755
sg1053
g833
sS'wikipedia.org'
p2410
g860
sS'youtube.com'
p2411
g2243
sg401
g1771
sg1183
g1794
sg409
g1806
sg1033
g2273
sg417
g1822
sg1237
g1840
sg289
g1477
sg393
g1737
sg513
g2068
sg45
g941
sg225
g1337
sg49
g958
sS'linkedin.com'
p2412
g2286
sg433
g1876
sg677
g2291
sg437
g1884
sg851
g2316
sg902
g2324
sg1509
g1918
sg1066
g1010
sg909
g2371
sg457
g1943
sg853
g2309
sg1385
g1960
sg77
g1028
sg473
g1987
sg1146
g1061
sg877
g2390
sg477
g2000
sg917
g2164
sg874
g2360
sg97
g1089
sg485
g2016
sg925
g2224
sg855
g1564
sg1381
g2258
sg805
(dp2413
g820
F0.11
ssS'reddit.com'
p2414
g2380
sg453
g1931
sg1064
g1441
sg377
g1681
sg1194
g1123
sg836
g1487
sg1447
g1156
sg828
g2152
sg301
g1521
sg537
g2087
sg429
g1858
sg545
g2099
sg864
g1533
sg145
g1192
sg153
g1212
sg257
g1366
sS'yahoo.com'
p2415
g2048
sg157
g1228
sg565
g2137
sg33
g889
sg1791
g1590
sg1078
g1598
sg773
g2401
sg1056
g1615
sg333
g1631
sg1353
(dp2416
g820
F0.040999999999999995
ssg353
g1659
sg561
g2126
sg597
g2181
sg1310
g2335
sg261
g1398
sg1037
(dp2417
g820
F0.027000000000000003
ssg189
g1269
sg809
(dp2418
g820
F0.14400000000000002
ssg381
g1696
sg1165
g2189
sg1136
g1424
sg621
g2205
ssg785
(dp2419
g677
g2294
sS'nicovideo.jp'
p2420
g2219
sS'fc2.com'
p2421
g2396
sg853
g2310
sS'youtube.com'
p2422
g2244
sS'google.com'
p2423
g2416
sg1381
g2261
sg1385
g1962
sg1033
g2274
sg77
g1032
sg1237
g1847
sS'twitter.com'
p2424
g1988
sg705
g2344
sg261
g1399
sg1037
(dp2425
g820
F0.017
ssg245
g1354
sS'facebook.com'
p2426
g2361
sg485
g2019
ssg789
(dp2427
g537
g2090
ssg793
(dp2428
g1037
(dp2429
g820
F0.017
ssg1136
g1430
ssg797
(dp2430
g97
g1092
ssg801
(dp2431
S'yahoo.co.jp'
p2432
g2311
sg345
g1641
sS'google.com'
p2433
g2417
sg105
g1108
sS'amazon.co.jp'
p2434
g2425
sg1033
g2275
sg77
g1038
sg793
g2429
sg361
g1668
sS'google.co.jp'
p2435
g1401
sS'youtube.com'
p2436
g2246
ssg805
(dp2437
S'yahoo.com'
p2438
g2045
sS'bing.com'
p2439
g2314
sS'reddit.com'
p2440
g2379
sS'google.com'
p2441
g2413
sS'huffingtonpost.com'
p2442
g1004
sg417
g1818
sS'twitter.com'
p2443
g1980
sS't.co'
p2444
g1052
sS'facebook.com'
p2445
g2356
sg545
g2097
ssg809
(dp2446
S'yahoo.com'
p2447
g2052
sS'bing.com'
p2448
g2318
sg1791
g1586
sS'reddit.com'
p2449
g2382
sS'youtube.com'
p2450
g2247
sS'google.com'
p2451
g2418
sS't.co'
p2452
g1071
sg129
g1163
sS'facebook.com'
p2453
g2362
sg1165
g2193
sssS'graph'
p2454
(dp2455
sS'adjlist_dict_factory'
p2456
g814
sS'adj'
p2457
g817
sb.