ccopy_reg
_reconstructor
p0
(cnetworkx.classes.graph
Graph
p1
c__builtin__
object
p2
Ntp3
Rp4
(dp5
S'node'
p6
(dp7
S'thehindu.com'
p8
(dp9
S'alist'
p10
(lp11
I116
aI128
aI75
aI63
aI93
aI75
asS'pageviews'
p12
F2.43
sS'ilist'
p13
(lp14
I181
aI106
aI58
aI58
asS'name'
p15
g8
sS'reach'
p16
F0.1269
ssS'vuukle.com'
p17
(dp18
g12
F3.64
sg13
(lp19
I198
aI93
aI0
aI52
asg10
(lp20
I50
aI123
aI171
aI51
aI0
aI0
asg15
g17
sg16
F0.00239
ssS'wikipedia.org'
p21
(dp22
g12
F3.64
sg13
(lp23
I118
aI112
aI81
aI87
asg10
(lp24
I98
aI98
aI102
aI98
aI103
aI98
asg15
g21
sg16
F9.646
ssS'youtube.com'
p25
(dp26
g12
F13.14
sg13
(lp27
I115
aI108
aI86
aI89
asg10
(lp28
I92
aI97
aI107
aI102
aI103
aI102
asg15
g25
sg16
F36.091
ssS'google.com'
p29
(dp30
g12
F17.68
sg13
(lp31
I95
aI98
aI104
aI103
asg10
(lp32
I98
aI98
aI102
aI98
aI98
aI102
asg15
g29
sg16
F42.143
ssS'google.co.in'
p33
(dp34
g12
F13.26
sg13
(lp35
I198
aI96
aI35
aI37
asg10
(lp36
I167
aI125
aI64
aI39
aI37
aI37
asg15
g33
sg16
F5.245
ssS'outbrain.com'
p37
(dp38
g12
F1.63
sg13
(lp39
I70
aI105
aI115
aI119
asg10
(lp40
I63
aI76
aI114
aI129
aI145
aI156
asg15
g37
sg16
F1.3726
ssS'indianexpress.com'
p41
(dp42
g12
F2.37
sg13
(lp43
I188
aI108
aI51
aI57
asg10
(lp44
I119
aI123
aI77
aI63
aI92
aI72
asg15
g41
sg16
F0.1569
ssS'facebook.com'
p45
(dp46
g12
F10.55
sg13
(lp47
I91
aI98
aI108
aI105
asg10
(lp48
I95
aI96
aI107
aI104
aI98
aI98
asg15
g45
sg16
F35.223
ssS'indiatimes.com'
p49
(dp50
g12
F4.83
sg13
(lp51
I180
aI105
aI57
aI61
asg10
(lp52
I121
aI121
aI80
aI62
aI90
aI102
asg15
g49
sg16
F0.6351
ssS'ndtv.com'
p53
(dp54
g12
F2.44
sg13
(lp55
I175
aI105
aI60
aI60
asg10
(lp56
I126
aI122
aI81
aI61
aI72
aI74
asg15
g53
sg16
F0.3137
sssS'node_dict_factory'
p57
c__builtin__
dict
p58
sS'edge_attr_dict_factory'
p59
g58
sS'edge'
p60
(dp61
g8
(dp62
g33
(dp63
S'weight'
p64
F0.237
ssg21
(dp65
g64
F0.013999999999999999
ssg25
(dp66
g64
F0.017
ssg29
(dp67
g64
F0.11800000000000001
ssg17
(dp68
g64
F0.016
ssg37
(dp69
g64
F0.028999999999999998
ssg41
(dp70
g64
F0.01
ssg45
(dp71
g64
F0.057
ssg49
(dp72
g64
F0.025
ssg53
(dp73
g64
F0.012
sssg17
(dp74
g8
g68
ssg21
(dp75
g8
g65
ssg25
(dp76
g8
g66
ssg29
(dp77
g8
g67
ssg33
(dp78
g8
g63
ssg37
(dp79
g8
g69
ssg41
(dp80
g8
g70
ssg45
(dp81
g8
g71
ssg49
(dp82
g8
g72
ssg53
(dp83
g8
g73
sssS'graph'
p84
(dp85
sS'adjlist_dict_factory'
p86
g58
sS'adj'
p87
g61
sb.