ccopy_reg
_reconstructor
p0
(cnetworkx.classes.graph
Graph
p1
c__builtin__
object
p2
Ntp3
Rp4
(dp5
S'node'
p6
(dp7
S'ebis.ne.jp'
p8
(dp9
S'pageviews'
p10
F3.7
sS'ilist'
p11
(lp12
I98
asS'alist'
p13
(lp14
I0
asS'name'
p15
g8
sS'reach'
p16
F0.01528
ssS'oe24.at'
p17
(dp18
g10
F2.81
sg11
(lp19
I103
asg13
(lp20
I64
asg15
g17
sg16
F0.00978
ssS'slickdeals.net'
p21
(dp22
g10
F3.97
sg11
(lp23
I159
asg13
(lp24
I91
asg15
g21
sg16
F0.3052
ssS'infobae.com'
p25
(dp26
g10
F3.19
sg11
(lp27
I78
asg13
(lp28
I96
asg15
g25
sg16
F0.0715
ssS'wikipedia.org'
p29
(dp30
g10
F3.65
sg11
(lp31
I87
asg13
(lp32
I98
asg15
g29
sg16
F9.593
ssS'detail.tmall.com'
p33
(dp34
g10
F1.22
sg11
(lp35
I49
asg13
(lp36
I31
asg15
g33
sg16
F0.808
ssS'kat.cr'
p37
(dp38
g10
F7.02
sg11
(lp39
I54
asg13
(lp40
I50
asg15
g37
sg16
F0.968
ssS'google.com.tw'
p41
(dp42
g10
F13.42
sg11
(lp43
I73
asg13
(lp44
I85
asg15
g41
sg16
F0.6096
ssS'krone.at'
p45
(dp46
g10
F3.91
sg11
(lp47
I68
asg13
(lp48
I89
asg15
g45
sg16
F0.02017
ssS'yalla-shoot.com'
p49
(dp50
g10
F3.08
sg11
(lp51
I24
asg13
(lp52
I0
asg15
g49
sg16
F0.0729
ssS'360.cn'
p53
(dp54
g10
F4.81
sg11
(lp55
I61
asg13
(lp56
I69
asg15
g53
sg16
F2.271
ssS'turn.com'
p57
(dp58
g10
F5.54
sg11
(lp59
I93
asg13
(lp60
I116
asg15
g57
sg16
F0.00476
ssS'blogspot.tw'
p61
(dp62
g10
F2.0
sg11
(lp63
I35
asg13
(lp64
I80
asg15
g61
sg16
F0.0709
ssS'openload.co'
p65
(dp66
g10
F2.51
sg11
(lp67
I59
asg13
(lp68
I28
asg15
g65
sg16
F0.1745
ssS'mercadolibre.com'
p69
(dp70
g10
F1.3
sg11
(lp71
I117
asg13
(lp72
I180
asg15
g69
sg16
F0.041
ssS'betrad.com'
p73
(dp74
g10
F1.06
sg11
(lp75
I90
asg13
(lp76
I0
asg15
g73
sg16
F0.00116
ssS'alipay.com'
p77
(dp78
g10
F4.67
sg11
(lp79
I75
asg13
(lp80
I55
asg15
g77
sg16
F0.781
ssS'flipkart.com'
p81
(dp82
g10
F8.5
sg11
(lp83
I43
asg13
(lp84
I47
asg15
g81
sg16
F0.6661
ssS'amazon.de'
p85
(dp86
g10
F14.53
sg11
(lp87
I87
asg13
(lp88
I61
asg15
g85
sg16
F1.0217
ssS'tmall.com'
p89
(dp90
g10
F3.39
sg11
(lp91
I69
asg13
(lp92
I69
asg15
g89
sg16
F2.494
ssS'criteo.com'
p93
(dp94
g10
F3.41
sg11
(lp95
I96
asg13
(lp96
I164
asg15
g93
sg16
F0.0541
ssS't-online.de'
p97
(dp98
g10
F6.26
sg11
(lp99
I107
asg13
(lp100
I81
asg15
g97
sg16
F0.2772
ssS'china.com.cn'
p101
(dp102
g10
F4.14
sg11
(lp103
I91
asg13
(lp104
I111
asg15
g101
sg16
F0.677
ssS'gmx.at'
p105
(dp106
g10
F2.26
sg11
(lp107
I91
asg13
(lp108
I109
asg15
g105
sg16
F0.0376
ssS'cvs.com'
p109
(dp110
g10
F3.75
sg11
(lp111
I158
asg13
(lp112
I126
asg15
g109
sg16
F0.0811
ssS'huffingtonpost.com'
p113
(dp114
g10
F2.08
sg11
(lp115
I129
asg13
(lp116
I128
asg15
g113
sg16
F0.6997
ssS'chobirich.com'
p117
(dp118
g10
F5.21
sg11
(lp119
I150
asg13
(lp120
I82
asg15
g117
sg16
F0.0174
ssS'directrev.com'
p121
(dp122
g10
F2.58
sg11
(lp123
I91
asg13
(lp124
I62
asg15
g121
sg16
F0.5651
ssS'rakuten.ne.jp'
p125
(dp126
g10
F1.78
sg11
(lp127
I198
asg13
(lp128
I58
asg15
g125
sg16
F0.1215
ssS'gendama.jp'
p129
(dp130
g10
F11.82
sg11
(lp131
I198
asg13
(lp132
I102
asg15
g129
sg16
F0.0186
ssS'googlesyndication.com'
p133
(dp134
g10
F1.88
sg11
(lp135
I152
asg13
(lp136
I131
asg15
g133
sg16
F0.0197
ssS'google.at'
p137
(dp138
g10
F8.14
sg11
(lp139
I98
asg13
(lp140
I96
asg15
g137
sg16
F0.2838
ssS't.co'
p141
(dp142
g10
F2.86
sg11
(lp143
I106
asg13
(lp144
I86
asg15
g141
sg16
F2.665
ssS'pinimg.com'
p145
(dp146
g10
F1.52
sg11
(lp147
I71
asg13
(lp148
I62
asg15
g145
sg16
F0.3284
ssS'usps.com'
p149
(dp150
g10
F3.1
sg11
(lp151
I143
asg13
(lp152
I125
asg15
g149
sg16
F0.35
ssS'addthis.com'
p153
(dp154
g10
F3.5
sg11
(lp155
I128
asg13
(lp156
I127
asg15
g153
sg16
F0.2623
ssS'funshopfun.com'
p157
(dp158
g10
F1.89
sg11
(lp159
I13
asg13
(lp160
I0
asg15
g157
sg16
F0.0361
ssS'netflix.com'
p161
(dp162
g10
F5.29
sg11
(lp163
I127
asg13
(lp164
I111
asg15
g161
sg16
F2.102
ssS'nextmedia.com'
p165
(dp166
g10
F5.25
sg11
(lp167
I82
asg13
(lp168
I31
asg15
g165
sg16
F0.0567
ssS'putlocker.is'
p169
(dp170
g10
F6.42
sg11
(lp171
I69
asg13
(lp172
I41
asg15
g169
sg16
F0.3381
ssS'craigslist.org'
p173
(dp174
g10
F14.18
sg11
(lp175
I135
asg13
(lp176
I107
asg15
g173
sg16
F0.8707
ssS'gpoint.co.jp'
p177
(dp178
g10
F11.11
sg11
(lp179
I0
asg13
(lp180
I0
asg15
g177
sg16
F0.0256
ssS'nasa.gov'
p181
(dp182
g10
F2.9
sg11
(lp183
I84
asg13
(lp184
I167
asg15
g181
sg16
F0.0924
ssS'trackingclick.net'
p185
(dp186
g10
F2.19
sg11
(lp187
I49
asg13
(lp188
I35
asg15
g185
sg16
F0.2132
ssS'alibaba.com'
p189
(dp190
g10
F3.67
sg11
(lp191
I90
asg13
(lp192
I80
asg15
g189
sg16
F1.278
ssS'gfycat.com'
p193
(dp194
g10
F3.04
sg11
(lp195
I65
asg13
(lp196
I57
asg15
g193
sg16
F0.2043
ssS'adplxmd.com'
p197
(dp198
g10
F1.22
sg11
(lp199
I59
asg13
(lp200
I28
asg15
g197
sg16
F0.3397
ssS'dreevee.com'
p201
(dp202
g10
F4.91
sg11
(lp203
I0
asg13
(lp204
I0
asg15
g201
sg16
F0.0362
ssS'popads.net'
p205
(dp206
g10
F2.63
sg11
(lp207
I62
asg13
(lp208
I63
asg15
g205
sg16
F0.8425
ssS'cnn.com'
p209
(dp210
g10
F2.73
sg11
(lp211
I138
asg13
(lp212
I137
asg15
g209
sg16
F1.0662
ssS'walmart.com'
p213
(dp214
g10
F5.95
sg11
(lp215
I128
asg13
(lp216
I152
asg15
g213
sg16
F0.5062
ssS'clipconverter.cc'
p217
(dp218
g10
F4.87
sg11
(lp219
I57
asg13
(lp220
I71
asg15
g217
sg16
F0.1477
ssS'cntv.cn'
p221
(dp222
g10
F6.46
sg11
(lp223
I113
asg13
(lp224
I96
asg15
g221
sg16
F0.88
ssS'office.com'
p225
(dp226
g10
F2.81
sg11
(lp227
I98
asg13
(lp228
I94
asg15
g225
sg16
F1.428
ssS'imgur.com'
p229
(dp230
g10
F11.25
sg11
(lp231
I98
asg13
(lp232
I77
asg15
g229
sg16
F1.4208
ssS'pornhub.com'
p233
(dp234
g10
F7.29
sg11
(lp235
I111
asg13
(lp236
I102
asg15
g233
sg16
F1.1168
ssS'mercadolibre.com.ar'
p237
(dp238
g10
F12.52
sg11
(lp239
I108
asg13
(lp240
I144
asg15
g237
sg16
F0.1254
ssS'rdsa2012.com'
p241
(dp242
g10
F1.73
sg11
(lp243
I55
asg13
(lp244
I78
asg15
g241
sg16
F0.4986
ssS'nytimes.com'
p245
(dp246
g10
F2.81
sg11
(lp247
I146
asg13
(lp248
I172
asg15
g245
sg16
F0.8693
ssS'google.it'
p249
(dp250
g10
F10.48
sg11
(lp251
I41
asg13
(lp252
I73
asg15
g249
sg16
F1.602
ssS'enwdgts.com'
p253
(dp254
g10
F1.39
sg11
(lp255
I96
asg13
(lp256
I0
asg15
g253
sg16
F0.00186
ssS'orf.at'
p257
(dp258
g10
F5.45
sg11
(lp259
I83
asg13
(lp260
I73
asg15
g257
sg16
F0.0545
ssS'nyaa.se'
p261
(dp262
g10
F8.72
sg11
(lp263
I33
asg13
(lp264
I9
asg15
g261
sg16
F0.1755
ssS'pixiv.net'
p265
(dp266
g10
F24.64
sg11
(lp267
I63
asg13
(lp268
I62
asg15
g265
sg16
F0.2766
ssS'web.de'
p269
(dp270
g10
F6.52
sg11
(lp271
I74
asg13
(lp272
I82
asg15
g269
sg16
F0.349
ssS'telekom-dienste.de'
p273
(dp274
g10
F2.02
sg11
(lp275
I88
asg13
(lp276
I86
asg15
g273
sg16
F0.00416
ssS'ndtv.com'
p277
(dp278
g10
F2.37
sg11
(lp279
I60
asg13
(lp280
I74
asg15
g277
sg16
F0.3336
ssS'360.com'
p281
(dp282
g10
F6.08
sg11
(lp283
I41
asg13
(lp284
I0
asg15
g281
sg16
F0.801
ssS'microsoft.com'
p285
(dp286
g10
F2.5
sg11
(lp287
I105
asg13
(lp288
I119
asg15
g285
sg16
F2.428
ssS'aol.de'
p289
(dp290
g10
F1.71
sg11
(lp291
I120
asg13
(lp292
I138
asg15
g289
sg16
F0.0307
ssS'bukalapak.com'
p293
(dp294
g10
F7.74
sg11
(lp295
I52
asg13
(lp296
I25
asg15
g293
sg16
F0.0615
ssS'media-ad.jp'
p297
(dp298
g10
F7.71
sg11
(lp299
I0
asg13
(lp300
I0
asg15
g297
sg16
F0.0167
ssS'panasonic.jp'
p301
(dp302
g10
F9.57
sg11
(lp303
I121
asg13
(lp304
I0
asg15
g301
sg16
F0.0764
ssS'aliexpress.com'
p305
(dp306
g10
F17.51
sg11
(lp307
I89
asg13
(lp308
I74
asg15
g305
sg16
F1.147
ssS'hao123.com'
p309
(dp310
g10
F2.32
sg11
(lp311
I65
asg13
(lp312
I102
asg15
g309
sg16
F3.682
ssS'fenrir-inc.com'
p313
(dp314
g10
F6.86
sg11
(lp315
I44
asg13
(lp316
I0
asg15
g313
sg16
F0.00973
ssS'futurezone.at'
p317
(dp318
g10
F1.85
sg11
(lp319
I65
asg13
(lp320
I0
asg15
g317
sg16
F0.0027
ssS'target.com'
p321
(dp322
g10
F6.63
sg11
(lp323
I145
asg13
(lp324
I117
asg15
g321
sg16
F0.3596
ssS'ebay.co.uk'
p325
(dp326
g10
F15.25
sg11
(lp327
I69
asg13
(lp328
I86
asg15
g325
sg16
F0.5279
ssS'buzzfeed.com'
p329
(dp330
g10
F3.02
sg11
(lp331
I113
asg13
(lp332
I82
asg15
g329
sg16
F0.6674
ssS'thekrazycouponlady.com'
p333
(dp334
g10
F2.23
sg11
(lp335
I111
asg13
(lp336
I60
asg15
g333
sg16
F0.01579
ssS'ekstrabladet.dk'
p337
(dp338
g10
F5.63
sg11
(lp339
I119
asg13
(lp340
I192
asg15
g337
sg16
F0.0268
ssS'taboola.com'
p341
(dp342
g10
F1.51
sg11
(lp343
I128
asg13
(lp344
I175
asg15
g341
sg16
F0.6076
ssS'twitch.tv'
p345
(dp346
g10
F4.3
sg11
(lp347
I132
asg13
(lp348
I90
asg15
g345
sg16
F0.7519
ssS'world.tmall.com'
p349
(dp350
g10
F5.99
sg11
(lp351
I104
asg13
(lp352
I0
asg15
g349
sg16
F0.0495
ssS'doubleverify.com'
p353
(dp354
g10
F1.86
sg11
(lp355
I177
asg13
(lp356
I0
asg15
g353
sg16
F0.0007
ssS'on.cc'
p357
(dp358
g10
F3.93
sg11
(lp359
I96
asg13
(lp360
I97
asg15
g357
sg16
F0.0315
ssS'kohls.com'
p361
(dp362
g10
F8.69
sg11
(lp363
I147
asg13
(lp364
I123
asg15
g361
sg16
F0.1551
ssS'enlnks2.com'
p365
(dp366
g10
F1.56
sg11
(lp367
I77
asg13
(lp368
I0
asg15
g365
sg16
F0.0029
ssS'thefreedictionary.com'
p369
(dp370
g10
F1.73
sg11
(lp371
I122
asg13
(lp372
I124
asg15
g369
sg16
F0.2429
ssS'papajohns.com'
p373
(dp374
g10
F6.62
sg11
(lp375
I111
asg13
(lp376
I28
asg15
g373
sg16
F0.03773
ssS'mobile01.com'
p377
(dp378
g10
F6.91
sg11
(lp379
I98
asg13
(lp380
I88
asg15
g377
sg16
F0.082
ssS'shoprite.com'
p381
(dp382
g10
F13.71
sg11
(lp383
I140
asg13
(lp384
I198
asg15
g381
sg16
F0.00859
ssS'd-moneymall.jp'
p385
(dp386
g10
F2.24
sg11
(lp387
I0
asg13
(lp388
I0
asg15
g385
sg16
F0.00471
ssS'google.com.br'
p389
(dp390
g10
F9.89
sg11
(lp391
I85
asg13
(lp392
I42
asg15
g389
sg16
F1.935
ssS'serving-sys.com'
p393
(dp394
g10
F1.31
sg11
(lp395
I93
asg13
(lp396
I143
asg15
g393
sg16
F0.1566
ssS'livingrichwithcoupons.com'
p397
(dp398
g10
F4.25
sg11
(lp399
I180
asg13
(lp400
I48
asg15
g397
sg16
F0.00302
ssS'telekom.com'
p401
(dp402
g10
F2.15
sg11
(lp403
I109
asg13
(lp404
I91
asg15
g401
sg16
F0.0884
ssS'spiegel.de'
p405
(dp406
g10
F5.27
sg11
(lp407
I96
asg13
(lp408
I88
asg15
g405
sg16
F0.1867
ssS'google.fr'
p409
(dp410
g10
F9.63
sg11
(lp411
I57
asg13
(lp412
I97
asg15
g409
sg16
F1.8588
ssS'theguardian.com'
p413
(dp414
g10
F2.36
sg11
(lp415
I96
asg13
(lp416
I138
asg15
g413
sg16
F0.5897
ssS'kakaku.com'
p417
(dp418
g10
F7.02
sg11
(lp419
I142
asg13
(lp420
I98
asg15
g417
sg16
F0.4113
ssS'mercadolibre.com.co'
p421
(dp422
g10
F8.52
sg11
(lp423
I118
asg13
(lp424
I75
asg15
g421
sg16
F0.0253
ssS'yimg.com'
p425
(dp426
g10
F1.71
sg11
(lp427
I91
asg13
(lp428
I108
asg15
g425
sg16
F0.0357
ssS'homepage-web.com'
p429
(dp430
g10
F1.09
sg11
(lp431
I59
asg13
(lp432
I141
asg15
g429
sg16
F0.1277
ssS'coupons.com'
p433
(dp434
g10
F2.62
sg11
(lp435
I145
asg13
(lp436
I97
asg15
g433
sg16
F0.0984
ssS'umblr.com'
p437
(dp438
g10
F2.14
sg11
(lp439
I79
asg13
(lp440
I68
asg15
g437
sg16
F0.2132
ssS'google.co.jp'
p441
(dp442
g10
F13.77
sg11
(lp443
I143
asg13
(lp444
I85
asg15
g441
sg16
F3.299
ssS'1688.com'
p445
(dp446
g10
F14.75
sg11
(lp447
I80
asg13
(lp448
I17
asg15
g445
sg16
F0.249
ssS'ad-link.jp'
p449
(dp450
g10
F3.68
sg11
(lp451
I0
asg13
(lp452
I0
asg15
g449
sg16
F0.0231
ssS'feedly.com'
p453
(dp454
g10
F6.15
sg11
(lp455
I88
asg13
(lp456
I92
asg15
g453
sg16
F0.3825
ssS'pex.jp'
p457
(dp458
g10
F11.17
sg11
(lp459
I198
asg13
(lp460
I0
asg15
g457
sg16
F0.037
ssS'buy.tmall.com'
p461
(dp462
g10
F2.08
sg11
(lp463
I46
asg13
(lp464
I0
asg15
g461
sg16
F0.1349
ssS'google.com.vn'
p465
(dp466
g10
F5.35
sg11
(lp467
I69
asg13
(lp468
I24
asg15
g465
sg16
F0.1314
ssS'espn.go.com'
p469
(dp470
g10
F4.24
sg11
(lp471
I154
asg13
(lp472
I115
asg15
g469
sg16
F0.7153
ssS'gamefactory.jp'
p473
(dp474
g10
F6.09
sg11
(lp475
I0
asg13
(lp476
I0
asg15
g473
sg16
F0.0494
ssS'taobao.com'
p477
(dp478
g10
F4.83
sg11
(lp479
I61
asg13
(lp480
I81
asg15
g477
sg16
F5.776
ssS'clarin.com'
p481
(dp482
g10
F3.26
sg11
(lp483
I82
asg13
(lp484
I140
asg15
g481
sg16
F0.0949
ssS'ptt.cc'
p485
(dp486
g10
F3.38
sg11
(lp487
I35
asg13
(lp488
I42
asg15
g485
sg16
F0.0822
ssS'amazon.com'
p489
(dp490
g10
F12.34
sg11
(lp491
I117
asg13
(lp492
I141
asg15
g489
sg16
F7.504
ssS'media.tumblr.com'
p493
(dp494
g10
F2.12
sg11
(lp495
I113
asg13
(lp496
I77
asg15
g493
sg16
F0.3169
ssS'google.com.hk'
p497
(dp498
g10
F5.88
sg11
(lp499
I76
asg13
(lp500
I48
asg15
g497
sg16
F1.279
ssS'derstandard.at'
p501
(dp502
g10
F4.27
sg11
(lp503
I86
asg13
(lp504
I47
asg15
g501
sg16
F0.024
ssS'cnzz.com'
p505
(dp506
g10
F4.7
sg11
(lp507
I98
asg13
(lp508
I91
asg15
g505
sg16
F0.55
ssS'google.com.mx'
p509
(dp510
g10
F8.18
sg11
(lp511
I106
asg13
(lp512
I121
asg15
g509
sg16
F1.322
ssS'aol.co.uk'
p513
(dp514
g10
F2.35
sg11
(lp515
I65
asg13
(lp516
I95
asg15
g513
sg16
F0.0265
ssS'bbc.co.uk'
p517
(dp518
g10
F4.57
sg11
(lp519
I110
asg13
(lp520
I126
asg15
g517
sg16
F0.7763
ssS'pinterest.com'
p521
(dp522
g10
F5.48
sg11
(lp523
I112
asg13
(lp524
I96
asg15
g521
sg16
F2.222
ssS'instagram.com'
p525
(dp526
g10
F7.6
sg11
(lp527
I106
asg13
(lp528
I65
asg15
g525
sg16
F2.782
ssS'tumblr.com'
p529
(dp530
g10
F6.3
sg11
(lp531
I116
asg13
(lp532
I96
asg15
g529
sg16
F1.673
ssS'ruten.com.tw'
p533
(dp534
g10
F17.06
sg11
(lp535
I78
asg13
(lp536
I62
asg15
g533
sg16
F0.0753
ssS'2ch.net'
p537
(dp538
g10
F5.64
sg11
(lp539
I112
asg13
(lp540
I44
asg15
g537
sg16
F0.2534
ssS'kingsoft.jp'
p541
(dp542
g10
F2.25
sg11
(lp543
I104
asg13
(lp544
I0
asg15
g541
sg16
F0.0181
ssS'xinhuanet.com'
p545
(dp546
g10
F5.94
sg11
(lp547
I72
asg13
(lp548
I88
asg15
g545
sg16
F0.998
ssS'shufoo.net'
p549
(dp550
g10
F4.63
sg11
(lp551
I148
asg13
(lp552
I96
asg15
g549
sg16
F0.0563
ssS'biglobe.ne.jp'
p553
(dp554
g10
F3.38
sg11
(lp555
I76
asg13
(lp556
I0
asg15
g553
sg16
F0.1529
ssS'google.co.id'
p557
(dp558
g10
F11.2
sg11
(lp559
I51
asg13
(lp560
I30
asg15
g557
sg16
F0.9391
ssS'kurier.at'
p561
(dp562
g10
F2.76
sg11
(lp563
I119
asg13
(lp564
I74
asg15
g561
sg16
F0.0108
ssS'livedoor.com'
p565
(dp566
g10
F6.77
sg11
(lp567
I127
asg13
(lp568
I119
asg15
g565
sg16
F0.1778
ssS'ppls.jp'
p569
(dp570
g10
F1.75
sg11
(lp571
I0
asg13
(lp572
I0
asg15
g569
sg16
F0.01123
ssS'elpais.com'
p573
(dp574
g10
F2.45
sg11
(lp575
I59
asg13
(lp576
I68
asg15
g573
sg16
F0.2088
ssS'gmx.net'
p577
(dp578
g10
F5.5
sg11
(lp579
I92
asg13
(lp580
I90
asg15
g577
sg16
F0.3485
ssS'amazon.in'
p581
(dp582
g10
F10.61
sg11
(lp583
I48
asg13
(lp584
I57
asg15
g581
sg16
F0.85
ssS'google.co.in'
p585
(dp586
g10
F13.69
sg11
(lp587
I37
asg13
(lp588
I37
asg15
g585
sg16
F5.384
ssS'xuite.net'
p589
(dp590
g10
F1.91
sg11
(lp591
I83
asg13
(lp592
I86
asg15
g589
sg16
F0.0788
ssS'soso.com'
p593
(dp594
g10
F1.95
sg11
(lp595
I109
asg13
(lp596
I114
asg15
g593
sg16
F1.404
ssS'msn.com'
p597
(dp598
g10
F4.23
sg11
(lp599
I111
asg13
(lp600
I110
asg15
g597
sg16
F4.414
ssS'amazon.es'
p601
(dp602
g10
F9.99
sg11
(lp603
I35
asg13
(lp604
I56
asg15
g601
sg16
F0.2398
ssS'foxnews.com'
p605
(dp606
g10
F2.72
sg11
(lp607
I146
asg13
(lp608
I167
asg15
g605
sg16
F0.471
ssS'ebates.com'
p609
(dp610
g10
F2.96
sg11
(lp611
I115
asg13
(lp612
I98
asg15
g609
sg16
F0.1655
ssS'ebay.com'
p613
(dp614
g10
F12.58
sg11
(lp615
I109
asg13
(lp616
I129
asg15
g613
sg16
F2.182
ssS'live.com'
p617
(dp618
g10
F3.82
sg11
(lp619
I94
asg13
(lp620
I94
asg15
g617
sg16
F6.619
ssS'ebay.es'
p621
(dp622
g10
F10.52
sg11
(lp623
I43
asg13
(lp624
I37
asg15
g621
sg16
F0.0639
ssS'elmundo.es'
p625
(dp626
g10
F2.91
sg11
(lp627
I55
asg13
(lp628
I67
asg15
g625
sg16
F0.1594
ssS'drudgereport.com'
p629
(dp630
g10
F1.05
sg11
(lp631
I173
asg13
(lp632
I168
asg15
g629
sg16
F0.2328
ssS'dmm.co.jp'
p633
(dp634
g10
F10.76
sg11
(lp635
I129
asg13
(lp636
I95
asg15
g633
sg16
F0.431
ssS'mediafire.com'
p637
(dp638
g10
F2.17
sg11
(lp639
I98
asg13
(lp640
I72
asg15
g637
sg16
F0.5979
ssS'adnetworkperformance.com'
p641
(dp642
g10
F3.29
sg11
(lp643
I46
asg13
(lp644
I48
asg15
g641
sg16
F0.8014
ssS'2mdn.net'
p645
(dp646
g10
F1.74
sg11
(lp647
I111
asg13
(lp648
I74
asg15
g645
sg16
F0.00523
ssS'bleacherreport.com'
p649
(dp650
g10
F3.02
sg11
(lp651
I149
asg13
(lp652
I112
asg15
g649
sg16
F0.1717
ssS'kijiji.ca'
p653
(dp654
g10
F13.38
sg11
(lp655
I112
asg13
(lp656
I121
asg15
g653
sg16
F0.1173
ssS'mysavings.com'
p657
(dp658
g10
F3.48
sg11
(lp659
I118
asg13
(lp660
I26
asg15
g657
sg16
F0.00291
ssS'willhaben.at'
p661
(dp662
g10
F11.32
sg11
(lp663
I56
asg13
(lp664
I77
asg15
g661
sg16
F0.0339
ssS'klikbca.com'
p665
(dp666
g10
F3.46
sg11
(lp667
I55
asg13
(lp668
I41
asg15
g665
sg16
F0.0895
ssS'onclickads.net'
p669
(dp670
g10
F2.8
sg11
(lp671
I56
asg13
(lp672
I39
asg15
g669
sg16
F2.142
ssS'wakefern.com'
p673
(dp674
g10
F1.33
sg11
(lp675
I0
asg13
(lp676
I0
asg15
g673
sg16
F0.000328
ssS'mercadolibre.com.mx'
p677
(dp678
g10
F8.9
sg11
(lp679
I72
asg13
(lp680
I67
asg15
g677
sg16
F0.092
ssS'thehindu.com'
p681
(dp682
g13
(lp683
I75
asg10
F2.35
sg11
(lp684
I58
asg15
g681
sg16
F0.1285
ssS'supermm.jp'
p685
(dp686
g10
F9.9
sg11
(lp687
I0
asg13
(lp688
I0
asg15
g685
sg16
F0.0022
ssS'51.la'
p689
(dp690
g10
F5.05
sg11
(lp691
I158
asg13
(lp692
I56
asg15
g689
sg16
F0.368
ssS'lazada.co.id'
p693
(dp694
g10
F5.77
sg11
(lp695
I49
asg13
(lp696
I28
asg15
g693
sg16
F0.0943
ssS'etsy.com'
p697
(dp698
g10
F9.11
sg11
(lp699
I127
asg13
(lp700
I98
asg15
g697
sg16
F0.4573
ssS'dailymail.co.uk'
p701
(dp702
g10
F2.66
sg11
(lp703
I117
asg13
(lp704
I118
asg15
g701
sg16
F0.6789
ssS'amazon.co.uk'
p705
(dp706
g10
F11.21
sg11
(lp707
I73
asg13
(lp708
I98
asg15
g705
sg16
F0.8267
ssS'dmm.com'
p709
(dp710
g10
F4.35
sg11
(lp711
I118
asg13
(lp712
I85
asg15
g709
sg16
F0.2197
ssS'rakuten-card.co.jp'
p713
(dp714
g10
F4.79
sg11
(lp715
I146
asg13
(lp716
I45
asg15
g713
sg16
F0.0828
ssS'detik.com'
p717
(dp718
g10
F5.68
sg11
(lp719
I64
asg13
(lp720
I45
asg15
g717
sg16
F0.1339
ssS'mercadolibre.com.ve'
p721
(dp722
g10
F13.39
sg11
(lp723
I36
asg13
(lp724
I43
asg15
g721
sg16
F0.0822
ssS'twitter.com'
p725
(dp726
g10
F5.27
sg11
(lp727
I109
asg13
(lp728
I93
asg15
g725
sg16
F6.57
ssS'diepresse.com'
p729
(dp730
g10
F3.39
sg11
(lp731
I85
asg13
(lp732
I51
asg15
g729
sg16
F0.01014
ssS'washingtonpost.com'
p733
(dp734
g10
F1.83
sg11
(lp735
I146
asg13
(lp736
I169
asg15
g733
sg16
F0.5522
ssS'google.de'
p737
(dp738
g10
F9.08
sg11
(lp739
I88
asg13
(lp740
I68
asg15
g737
sg16
F2.3546
ssS'tokopedia.com'
p741
(dp742
g10
F12.45
sg11
(lp743
I50
asg13
(lp744
I18
asg15
g741
sg16
F0.0879
ssS'mobile.de'
p745
(dp746
g10
F18.07
sg11
(lp747
I89
asg13
(lp748
I27
asg15
g745
sg16
F0.127
ssS'discas.net'
p749
(dp750
g10
F2.65
sg11
(lp751
I128
asg13
(lp752
I0
asg15
g749
sg16
F0.0262
ssS'kaskus.co.id'
p753
(dp754
g10
F8.36
sg11
(lp755
I52
asg13
(lp756
I39
asg15
g753
sg16
F0.1084
ssS'haosou.com'
p757
(dp758
g10
F6.14
sg11
(lp759
I79
asg13
(lp760
I27
asg15
g757
sg16
F0.776
ssS'yahoo.com'
p761
(dp762
g10
F7.0
sg11
(lp763
I113
asg13
(lp764
I112
asg15
g761
sg16
F10.917
ssS'appledaily.com.tw'
p765
(dp766
g10
F3.69
sg11
(lp767
I41
asg13
(lp768
I57
asg15
g765
sg16
F0.1109
ssS'linkwithin.com'
p769
(dp770
g10
F2.03
sg11
(lp771
I71
asg13
(lp772
I73
asg15
g769
sg16
F0.0666
ssS'gmo.jp'
p773
(dp774
g10
F7.28
sg11
(lp775
I195
asg13
(lp776
I103
asg15
g773
sg16
F0.01072
ssS'potora.jp'
p777
(dp778
g10
F17.9
sg11
(lp779
I0
asg13
(lp780
I0
asg15
g777
sg16
F0.01491
ssS'pixnet.net'
p781
(dp782
g10
F3.18
sg11
(lp783
I62
asg13
(lp784
I80
asg15
g781
sg16
F0.2457
ssS'ebay-kleinanzeigen.de'
p785
(dp786
g10
F13.98
sg11
(lp787
I73
asg13
(lp788
I33
asg15
g785
sg16
F0.2173
ssS'perfil.com'
p789
(dp790
g10
F4.47
sg11
(lp791
I61
asg13
(lp792
I198
asg15
g789
sg16
F0.0192
ssS'dreammail.jp'
p793
(dp794
g10
F8.1
sg11
(lp795
I0
asg13
(lp796
I0
asg15
g793
sg16
F0.0197
ssS'macys.com'
p797
(dp798
g10
F8.34
sg11
(lp799
I160
asg13
(lp800
I136
asg15
g797
sg16
F0.1789
ssS'mingpao.com'
p801
(dp802
g10
F4.19
sg11
(lp803
I130
asg13
(lp804
I143
asg15
g801
sg16
F0.0135
ssS'openx.net'
p805
(dp806
g10
F1.17
sg11
(lp807
I160
asg13
(lp808
I0
asg15
g805
sg16
F0.00305
ssS'pointservice.com'
p809
(dp810
g10
F12.6
sg11
(lp811
I0
asg13
(lp812
I0
asg15
g809
sg16
F0.00866
ssS'research-panel.jp'
p813
(dp814
g10
F2.1
sg11
(lp815
I146
asg13
(lp816
I58
asg15
g813
sg16
F0.0438
ssS'forgetfulbc.blogspot.com'
p817
(dp818
g10
F2.23
sg11
(lp819
I27
asg13
(lp820
I0
asg15
g817
sg16
F0.00812
ssS'indianexpress.com'
p821
(dp822
g10
F2.36
sg11
(lp823
I57
asg13
(lp824
I72
asg15
g821
sg16
F0.1642
ssS'refdesk.com'
p825
(dp826
g10
F1.16
sg11
(lp827
I61
asg13
(lp828
I198
asg15
g825
sg16
F0.00456
ssS'wikiwiki.jp'
p829
(dp830
g10
F5.26
sg11
(lp831
I111
asg13
(lp832
I98
asg15
g829
sg16
F0.1395
ssS'fruitmail.net'
p833
(dp834
g10
F10.59
sg11
(lp835
I182
asg13
(lp836
I70
asg15
g833
sg16
F0.01529
ssS'rubiconproject.com'
p837
(dp838
g10
F2.39
sg11
(lp839
I145
asg13
(lp840
I57
asg15
g837
sg16
F0.0181
ssS'babytree.com'
p841
(dp842
g10
F5.8
sg11
(lp843
I59
asg13
(lp844
I28
asg15
g841
sg16
F0.35
ssS'lanacion.com.ar'
p845
(dp846
g10
F2.96
sg11
(lp847
I86
asg13
(lp848
I165
asg15
g845
sg16
F0.0877
ssS'ponta.jp'
p849
(dp850
g10
F6.12
sg11
(lp851
I0
asg13
(lp852
I0
asg15
g849
sg16
F0.0266
ssS'yandex.ru'
p853
(dp854
g10
F12.41
sg11
(lp855
I67
asg13
(lp856
I67
asg15
g853
sg16
F2.579
ssS'nukineta-heaven.com'
p857
(dp858
g10
F1.5
sg11
(lp859
I0
asg13
(lp860
I0
asg15
g857
sg16
F0.0018
ssS'couponaholic.net'
p861
(dp862
g10
F3.39
sg11
(lp863
I78
asg13
(lp864
I0
asg15
g861
sg16
F0.001
ssS'google.es'
p865
(dp866
g10
F10.98
sg11
(lp867
I43
asg13
(lp868
I74
asg15
g865
sg16
F1.5213
ssS'mercadolibre.com.uy'
p869
(dp870
g10
F14.1
sg11
(lp871
I98
asg13
(lp872
I0
asg15
g869
sg16
F0.00926
ssS'indiatimes.com'
p873
(dp874
g10
F4.82
sg11
(lp875
I61
asg13
(lp876
I102
asg15
g873
sg16
F0.6631
ssS'ebay.ca'
p877
(dp878
g10
F9.36
sg11
(lp879
I104
asg13
(lp880
I115
asg15
g877
sg16
F0.0648
ssS'aol.com'
p881
(dp882
g10
F3.54
sg11
(lp883
I139
asg13
(lp884
I143
asg15
g881
sg16
F0.5453
ssS'googleapis.com'
p885
(dp886
g10
F2.19
sg11
(lp887
I74
asg13
(lp888
I74
asg15
g885
sg16
F0.0787
ssS'qq.com'
p889
(dp890
g10
F4.06
sg11
(lp891
I106
asg13
(lp892
I86
asg15
g889
sg16
F7.578
ssS'paypal.com'
p893
(dp894
g10
F4.75
sg11
(lp895
I104
asg13
(lp896
I124
asg15
g893
sg16
F1.891
ssS'so-net.ne.jp'
p897
(dp898
g10
F3.33
sg11
(lp899
I106
asg13
(lp900
I102
asg15
g897
sg16
F0.165
ssS'amazon.ca'
p901
(dp902
g10
F8.54
sg11
(lp903
I135
asg13
(lp904
I182
asg15
g901
sg16
F0.165
ssS'google.com.co'
p905
(dp906
g10
F7.16
sg11
(lp907
I109
asg13
(lp908
I144
asg15
g905
sg16
F0.385
ssS'vk.com'
p909
(dp910
g10
F15.32
sg11
(lp911
I68
asg13
(lp912
I52
asg15
g909
sg16
F2.639
ssS'warau.jp'
p913
(dp914
g10
F25.0
sg11
(lp915
I0
asg13
(lp916
I0
asg15
g913
sg16
F0.01527
ssS'outbrain.com'
p917
(dp918
g10
F1.66
sg11
(lp919
I119
asg13
(lp920
I156
asg15
g917
sg16
F1.347
ssS'breitbart.com'
p921
(dp922
g10
F2.38
sg11
(lp923
I162
asg13
(lp924
I164
asg15
g921
sg16
F0.1041
ssS'blogger.com'
p925
(dp926
g10
F5.63
sg11
(lp927
I90
asg13
(lp928
I95
asg15
g925
sg16
F0.9924
ssS'nicovideo.jp'
p929
(dp930
g10
F17.1
sg11
(lp931
I111
asg13
(lp932
I98
asg15
g929
sg16
F0.8177
ssS'olx.co.id'
p933
(dp934
g10
F15.41
sg11
(lp935
I49
asg13
(lp936
I23
asg15
g933
sg16
F0.0572
ssS'groupon.com'
p937
(dp938
g10
F3.73
sg11
(lp939
I148
asg13
(lp940
I117
asg15
g937
sg16
F0.3227
ssS'sina.com.cn'
p941
(dp942
g10
F3.95
sg11
(lp943
I114
asg13
(lp944
I87
asg15
g941
sg16
F4.264
ssS'siteadvisor.com'
p945
(dp946
g10
F3.83
sg11
(lp947
I147
asg13
(lp948
I104
asg15
g945
sg16
F0.2504
ssS'youtube.com'
p949
(dp950
g10
F13.1
sg11
(lp951
I89
asg13
(lp952
I102
asg15
g949
sg16
F35.771
ssS'sohu.com'
p953
(dp954
g10
F2.55
sg11
(lp955
I56
asg13
(lp956
I86
asg15
g953
sg16
F2.395
ssS'tsite.jp'
p957
(dp958
g10
F5.09
sg11
(lp959
I58
asg13
(lp960
I0
asg15
g957
sg16
F0.1239
ssS'rakuten.co.jp'
p961
(dp962
g10
F11.69
sg11
(lp963
I146
asg13
(lp964
I95
asg15
g961
sg16
F0.9822
ssS'stackoverflow.com'
p965
(dp966
g10
F4.36
sg11
(lp967
I91
asg13
(lp968
I64
asg15
g965
sg16
F1.64
ssS'netmile.co.jp'
p969
(dp970
g10
F7.99
sg11
(lp971
I0
asg13
(lp972
I0
asg15
g969
sg16
F0.01212
ssS'hip2save.com'
p973
(dp974
g10
F3.84
sg11
(lp975
I126
asg13
(lp976
I79
asg15
g973
sg16
F0.01544
ssS'gstatic.com'
p977
(dp978
g10
F1.4
sg11
(lp979
I76
asg13
(lp980
I66
asg15
g977
sg16
F0.0918
ssS'google.ru'
p981
(dp982
g10
F14.73
sg11
(lp983
I59
asg13
(lp984
I49
asg15
g981
sg16
F2.032
ssS'pixnet.cc'
p985
(dp986
g10
F5.13
sg11
(lp987
I95
asg13
(lp988
I0
asg15
g985
sg16
F0.0047
ssS'terraclicks.com'
p989
(dp990
g10
F1.21
sg11
(lp991
I57
asg13
(lp992
I68
asg15
g989
sg16
F0.4828
ssS'amazon.cn'
p993
(dp994
g10
F14.2
sg11
(lp995
I98
asg13
(lp996
I98
asg15
g993
sg16
F0.548
ssS'absoluteclickscom.com'
p997
(dp998
g10
F2.64
sg11
(lp999
I41
asg13
(lp1000
I77
asg15
g997
sg16
F0.1119
ssS'linkedin.com'
p1001
(dp1002
g10
F6.27
sg11
(lp1003
I119
asg13
(lp1004
I108
asg15
g1001
sg16
F3.616
ssS'telekom.de'
p1005
(dp1006
g10
F3.96
sg11
(lp1007
I105
asg13
(lp1008
I80
asg15
g1005
sg16
F0.0326
ssS'ecnavi.jp'
p1009
(dp1010
g10
F15.42
sg11
(lp1011
I182
asg13
(lp1012
I123
asg15
g1009
sg16
F0.0659
ssS'yahoo.co.jp'
p1013
(dp1014
g10
F16.8
sg11
(lp1015
I142
asg13
(lp1016
I74
asg15
g1013
sg16
F3.081
ssS'bing.com'
p1017
(dp1018
g10
F3.14
sg11
(lp1019
I140
asg13
(lp1020
I114
asg15
g1017
sg16
F4.68
ssS'weibo.com'
p1021
(dp1022
g10
F4.86
sg11
(lp1023
I78
asg13
(lp1024
I74
asg15
g1021
sg16
F3.677
ssS'gmx.ch'
p1025
(dp1026
g10
F2.48
sg11
(lp1027
I155
asg13
(lp1028
I153
asg15
g1025
sg16
F0.01466
ssS'redintelligence.net'
p1029
(dp1030
g10
F1.26
sg11
(lp1031
I0
asg13
(lp1032
I0
asg15
g1029
sg16
F0.00119
ssS'retailmenot.com'
p1033
(dp1034
g10
F2.28
sg11
(lp1035
I147
asg13
(lp1036
I80
asg15
g1033
sg16
F0.1861
ssS'magentacloud.de'
p1037
(dp1038
g10
F4.91
sg11
(lp1039
I0
asg13
(lp1040
I0
asg15
g1037
sg16
F0.00301
ssS'pointkodukai.com'
p1041
(dp1042
g10
F1.41
sg11
(lp1043
I0
asg13
(lp1044
I0
asg15
g1041
sg16
F0.0059
ssS'a-q-f.com'
p1045
(dp1046
g10
F6.37
sg11
(lp1047
I74
asg13
(lp1048
I0
asg15
g1045
sg16
F0.0321
ssS'google.co.uk'
p1049
(dp1050
g10
F10.28
sg11
(lp1051
I74
asg13
(lp1052
I93
asg15
g1049
sg16
F2.016
ssS'tsutaya-adult.com'
p1053
(dp1054
g10
F9.83
sg11
(lp1055
I0
asg13
(lp1056
I0
asg15
g1053
sg16
F0.00939
ssS'recruit.co.jp'
p1057
(dp1058
g10
F2.93
sg11
(lp1059
I98
asg13
(lp1060
I0
asg15
g1057
sg16
F0.0485
ssS'aeon.jp'
p1061
(dp1062
g10
F2.48
sg11
(lp1063
I0
asg13
(lp1064
I0
asg15
g1061
sg16
F0.00577
ssS'facebook.com'
p1065
(dp1066
g10
F10.95
sg11
(lp1067
I105
asg13
(lp1068
I98
asg15
g1065
sg16
F35.3
ssS'omni7.jp'
p1069
(dp1070
g10
F4.08
sg11
(lp1071
I0
asg13
(lp1072
I0
asg15
g1069
sg16
F0.0401
ssS'dietnavi.com'
p1073
(dp1074
g10
F12.46
sg11
(lp1075
I144
asg13
(lp1076
I111
asg15
g1073
sg16
F0.0176
ssS'anitube.se'
p1077
(dp1078
g10
F6.11
sg11
(lp1079
I17
asg13
(lp1080
I0
asg15
g1077
sg16
F0.0974
ssS'bild.de'
p1081
(dp1082
g10
F3.57
sg11
(lp1083
I98
asg13
(lp1084
I67
asg15
g1081
sg16
F0.2065
ssS'ebay.de'
p1085
(dp1086
g10
F16.1
sg11
(lp1087
I89
asg13
(lp1088
I61
asg15
g1085
sg16
F0.5057
ssS'nextdigital.com.hk'
p1089
(dp1090
g10
F1.09
sg11
(lp1091
I0
asg13
(lp1092
I0
asg15
g1089
sg16
F0.0015
ssS'adnxs.com'
p1093
(dp1094
g10
F2.4
sg11
(lp1095
I154
asg13
(lp1096
I118
asg15
g1093
sg16
F0.0253
ssS'baidu.com'
p1097
(dp1098
g10
F7.93
sg11
(lp1099
I91
asg13
(lp1100
I84
asg15
g1097
sg16
F12.796
ssS'lifemedia.jp'
p1101
(dp1102
g10
F7.08
sg11
(lp1103
I0
asg13
(lp1104
I0
asg15
g1101
sg16
F0.0217
ssS'reddit.com'
p1105
(dp1106
g10
F9.39
sg11
(lp1107
I109
asg13
(lp1108
I78
asg15
g1105
sg16
F2.062
ssS'adf.ly'
p1109
(dp1110
g10
F3.61
sg11
(lp1111
I92
asg13
(lp1112
I71
asg15
g1109
sg16
F0.768
ssS'gamer.com.tw'
p1113
(dp1114
g10
F9.59
sg11
(lp1115
I107
asg13
(lp1116
I91
asg15
g1113
sg16
F0.1057
ssS't-mobile.de'
p1117
(dp1118
g10
F5.61
sg11
(lp1119
I120
asg13
(lp1120
I61
asg15
g1117
sg16
F0.01048
ssS'sogou.com'
p1121
(dp1122
g10
F2.9
sg11
(lp1123
I78
asg13
(lp1124
I58
asg15
g1121
sg16
F0.885
ssS'google.com.au'
p1125
(dp1126
g10
F9.43
sg11
(lp1127
I151
asg13
(lp1128
I164
asg15
g1125
sg16
F0.8068
ssS'staples.ca'
p1129
(dp1130
g10
F5.37
sg11
(lp1131
I137
asg13
(lp1132
I198
asg15
g1129
sg16
F0.01046
ssS'google.com.ar'
p1133
(dp1134
g10
F8.41
sg11
(lp1135
I123
asg13
(lp1136
I198
asg15
g1133
sg16
F0.6307
ssS'doubleclick.net'
p1137
(dp1138
g10
F3.32
sg11
(lp1139
I149
asg13
(lp1140
I125
asg15
g1137
sg16
F0.3936
ssS'archiveofourown.org'
p1141
(dp1142
g10
F12.13
sg11
(lp1143
I45
asg13
(lp1144
I40
asg15
g1141
sg16
F0.0614
ssS'shareasale.com'
p1145
(dp1146
g10
F2.37
sg11
(lp1147
I136
asg13
(lp1148
I109
asg15
g1145
sg16
F0.1204
ssS'smartsource.com'
p1149
(dp1150
g10
F1.48
sg11
(lp1151
I92
asg13
(lp1152
I54
asg15
g1149
sg16
F0.00448
ssS'fc2.com'
p1153
(dp1154
g10
F6.08
sg11
(lp1155
I94
asg13
(lp1156
I69
asg15
g1153
sg16
F1.3766
ssS'bestbuy.com'
p1157
(dp1158
g10
F5.93
sg11
(lp1159
I147
asg13
(lp1160
I144
asg15
g1157
sg16
F0.3021
ssS'adform.net'
p1161
(dp1162
g10
F1.17
sg11
(lp1163
I72
asg13
(lp1164
I94
asg15
g1161
sg16
F0.0204
ssS'google.cn'
p1165
(dp1166
g10
F2.09
sg11
(lp1167
I88
asg13
(lp1168
I74
asg15
g1165
sg16
F0.454
ssS'google.ca'
p1169
(dp1170
g10
F9.32
sg11
(lp1171
I121
asg13
(lp1172
I140
asg15
g1169
sg16
F1.1235
ssS'imdb.com'
p1173
(dp1174
g10
F5.94
sg11
(lp1175
I97
asg13
(lp1176
I91
asg15
g1173
sg16
F1.399
ssS'google.com'
p1177
(dp1178
g10
F18.2
sg11
(lp1179
I103
asg13
(lp1180
I102
asg15
g1177
sg16
F42.207
ssS'amazon.co.jp'
p1181
(dp1182
g10
F14.89
sg11
(lp1183
I125
asg13
(lp1184
I88
asg15
g1181
sg16
F1.949
ssS'bestbuy.ca'
p1185
(dp1186
g10
F5.37
sg11
(lp1187
I133
asg13
(lp1188
I172
asg15
g1185
sg16
F0.0267
ssS'idnes.cz'
p1189
(dp1190
g10
F7.73
sg11
(lp1191
I80
asg13
(lp1192
I24
asg15
g1189
sg16
F0.0813
ssS'forgetfulbc.blogspot.hk'
p1193
(dp1194
g10
F1.0
sg11
(lp1195
I0
asg13
(lp1196
I0
asg15
g1193
sg16
F0.00026
ssS'pointtown.com'
p1197
(dp1198
g10
F22.9
sg11
(lp1199
I154
asg13
(lp1200
I120
asg15
g1197
sg16
F0.0287
ssS'hkgolden.com'
p1201
(dp1202
g10
F12.4
sg11
(lp1203
I38
asg13
(lp1204
I0
asg15
g1201
sg16
F0.0219
ssS'infoseek.co.jp'
p1205
(dp1206
g10
F9.6
sg11
(lp1207
I138
asg13
(lp1208
I96
asg15
g1205
sg16
F0.1054
ssS'ap.org'
p1209
(dp1210
g10
F1.63
sg11
(lp1211
I168
asg13
(lp1212
I142
asg15
g1209
sg16
F0.058
ssS'bbc.com'
p1213
(dp1214
g10
F2.75
sg11
(lp1215
I108
asg13
(lp1216
I158
asg15
g1213
sg16
F0.7297
sssS'node_dict_factory'
p1217
c__builtin__
dict
p1218
sS'edge_attr_dict_factory'
p1219
g1218
sS'edge'
p1220
(dp1221
g8
(dp1222
g1009
(dp1223
S'weight'
p1224
F0.019
sssg17
(dp1225
S'krone.at'
p1226
(dp1227
g1224
F0.018000000000000002
sssg21
(dp1228
S'yahoo.com'
p1229
(dp1230
g1224
F0.027999999999999997
ssg321
(dp1231
g1224
F0.01
ssg1157
(dp1232
g1224
F0.018000000000000002
ssS'reddit.com'
p1233
(dp1234
g1224
F0.021
ssS'youtube.com'
p1235
(dp1236
g1224
F0.021
ssS'ebay.com'
p1237
(dp1238
g1224
F0.0165
ssS'live.com'
p1239
(dp1240
g1224
F0.011000000000000001
ssS'espn.go.com'
p1241
(dp1242
g1224
F0.008
ssg361
(dp1243
g1224
F0.015
ssS'walmart.com'
p1244
(dp1245
g1224
F0.011000000000000001
ssS'amazon.com'
p1246
(dp1247
g1224
F0.0415
ssS'facebook.com'
p1248
(dp1249
g1224
F0.052000000000000005
ssg937
(dp1250
g1224
F0.009000000000000001
ssS'google.com'
p1251
(dp1252
g1224
F0.166
sssg25
(dp1253
g845
(dp1254
g1224
F0.035500000000000004
ssS'google.es'
p1255
(dp1256
g1224
F0.011000000000000001
ssS'youtube.com'
p1257
(dp1258
g1224
F0.027000000000000003
ssS'google.com'
p1259
(dp1260
g1224
F0.069
ssS'live.com'
p1261
(dp1262
g1224
F0.013999999999999999
ssS'clarin.com'
p1263
(dp1264
g1224
F0.0315
ssS'twitter.com'
p1265
(dp1266
g1224
F0.017
ssS't.co'
p1267
(dp1268
g1224
F0.021
ssS'facebook.com'
p1269
(dp1270
g1224
F0.087
ssS'google.com.ar'
p1271
(dp1272
g1224
F0.162
sssg29
(dp1273
S'youtube.com'
p1274
(dp1275
g1224
F0.0175
ssg41
(dp1276
g1224
F0.017
ssS'google.com.hk'
p1277
(dp1278
g1224
F0.018000000000000002
ssg681
(dp1279
g1224
F0.013000000000000001
ssS'bing.com'
p1280
(dp1281
g1224
F0.022
ssg557
(dp1282
g1224
F0.01
ssS'reddit.com'
p1283
(dp1284
g1224
F0.013999999999999999
ssg409
(dp1285
g1224
F0.017
ssS'google.de'
p1286
(dp1287
g1224
F0.026000000000000002
ssS'google.com.mx'
p1288
(dp1289
g1224
F0.02
ssS'yahoo.co.jp'
p1290
(dp1291
g1224
F0.012
ssg585
(dp1292
g1224
F0.018000000000000002
ssS'facebook.com'
p1293
(dp1294
g1224
F0.012
ssg229
(dp1295
g1224
F0.008
ssS'google.com.ar'
p1296
(dp1297
g1224
F0.017
ssS'yahoo.com'
p1298
(dp1299
g1224
F0.011
ssS'orf.at'
p1300
(dp1301
g1224
F0.013000000000000001
ssg1255
(dp1302
g1224
F0.015
ssg529
(dp1303
g1224
F0.008
ssS'google.com'
p1304
(dp1305
g1224
F0.156
ssS'google.ca'
p1306
(dp1307
g1224
F0.017
ssS'google.co.uk'
p1308
(dp1309
g1224
F0.02
ssg441
(dp1310
g1224
F0.027000000000000003
ssS'google.at'
p1311
(dp1312
g1224
F0.022000000000000002
ssg501
(dp1313
g1224
F0.016
sssg33
(dp1314
g477
(dp1315
g1224
F0.051
sssg37
(dp1316
g185
(dp1317
g1224
F0.013000000000000001
sssg41
(dp1318
S'yahoo.com'
p1319
(dp1320
g1224
F0.037000000000000005
ssg1113
(dp1321
g1224
F0.011000000000000001
ssS'wikipedia.org'
p1322
g1276
sS'youtube.com'
p1323
(dp1324
g1224
F0.05
ssS'google.com'
p1325
(dp1326
g1224
F0.040999999999999995
ssg377
(dp1327
g1224
F0.008
ssg589
(dp1328
g1224
F0.43700000000000006
ssg533
(dp1329
g1224
F0.008
ssg61
(dp1330
g1224
F0.379
ssg485
(dp1331
g1224
F0.008
ssg781
(dp1332
g1224
F0.20650000000000002
ssg817
(dp1333
g1224
F0.055999999999999994
ssS'facebook.com'
p1334
(dp1335
g1224
F0.068
ssg165
(dp1336
g1224
F0.022000000000000002
sssg45
(dp1337
g17
g1227
sS'bing.com'
p1338
(dp1339
g1224
F0.019
ssg729
(dp1340
g1224
F0.015
ssS'orf.at'
p1341
(dp1342
g1224
F0.045
ssS'youtube.com'
p1343
(dp1344
g1224
F0.023
ssS'google.com'
p1345
(dp1346
g1224
F0.018000000000000002
ssg561
(dp1347
g1224
F0.0395
ssS'google.de'
p1348
(dp1349
g1224
F0.035
ssS'facebook.com'
p1350
(dp1351
g1224
F0.106
ssS'google.at'
p1352
(dp1353
g1224
F0.131
ssS'bild.de'
p1354
(dp1355
g1224
F0.019
sssg49
(dp1356
g669
(dp1357
g1224
F0.006999999999999999
sssg53
(dp1358
S'haosou.com'
p1359
(dp1360
g1224
F0.09300000000000001
ssS'weibo.com'
p1361
(dp1362
g1224
F0.033
ssg841
(dp1363
g1224
F0.061
ssS'china.com.cn'
p1364
(dp1365
g1224
F0.073
ssS'51.la'
p1366
(dp1367
g1224
F0.064
ssS'baidu.com'
p1368
(dp1369
g1224
F0.1125
ssS'sohu.com'
p1370
(dp1371
g1224
F0.053000000000000005
ssg1165
(dp1372
g1224
F0.01
ssg477
(dp1373
g1224
F0.0285
ssS'360.com'
p1374
(dp1375
g1224
F0.064
ssS'qq.com'
p1376
(dp1377
g1224
F0.0345
ssS'xinhuanet.com'
p1378
(dp1379
g1224
F0.0575
ssS'cnzz.com'
p1380
(dp1381
g1224
F0.055999999999999994
ssS'cntv.cn'
p1382
(dp1383
g1224
F0.067
ssS'sina.com.cn'
p1384
(dp1385
g1224
F0.0325
ssS'soso.com'
p1386
(dp1387
g1224
F0.046
ssS'tmall.com'
p1388
(dp1389
g1224
F0.052000000000000005
ssS'hao123.com'
p1390
(dp1391
g1224
F0.04
sssg57
(dp1392
S'2mdn.net'
p1393
(dp1394
g1224
F0.008
sssg61
(dp1395
S'google.com.tw'
p1396
g1330
sS'yahoo.com'
p1397
(dp1398
g1224
F0.038
ssS'gamer.com.tw'
p1399
(dp1400
g1224
F0.008
ssS'bing.com'
p1401
(dp1402
g1224
F0.008
ssS'youtube.com'
p1403
(dp1404
g1224
F0.033
ssS'google.com'
p1405
(dp1406
g1224
F0.046
ssg925
(dp1407
g1224
F0.013999999999999999
ssS'ptt.cc'
p1408
(dp1409
g1224
F0.005
ssS'pixnet.net'
p1410
(dp1411
g1224
F0.023
ssg817
(dp1412
g1224
F0.23
ssS'facebook.com'
p1413
(dp1414
g1224
F0.09
sssg65
(dp1415
g669
(dp1416
g1224
F0.011000000000000001
sssg69
(dp1417
g677
(dp1418
g1224
F0.07250000000000001
ssS'google.com.mx'
p1419
(dp1420
g1224
F0.043
ssg869
(dp1421
g1224
F0.036000000000000004
ssS'google.com'
p1422
(dp1423
g1224
F0.069
ssS'live.com'
p1424
(dp1425
g1224
F0.046
ssg721
(dp1426
g1224
F0.038
ssg1133
(dp1427
g1224
F0.028999999999999998
ssS'facebook.com'
p1428
(dp1429
g1224
F0.034
ssg421
(dp1430
g1224
F0.048
ssg237
(dp1431
g1224
F0.1085
sssg73
(dp1432
g133
(dp1433
g1224
F0.022000000000000002
ssS'doubleclick.net'
p1434
(dp1435
g1224
F0.016
ssg1393
(dp1436
g1224
F0.032
sssg77
(dp1437
g445
(dp1438
g1224
F0.017
ssS'alibaba.com'
p1439
(dp1440
g1224
F0.024
ssg1021
(dp1441
g1224
F0.012
ssg461
(dp1442
g1224
F0.059000000000000004
ssg1097
(dp1443
g1224
F0.027000000000000003
ssS'google.com'
p1444
(dp1445
g1224
F0.019
ssg477
(dp1446
g1224
F0.126
ssg889
(dp1447
g1224
F0.01
ssg305
(dp1448
g1224
F0.16549999999999998
ssg993
(dp1449
g1224
F0.009000000000000001
sssg81
(dp1450
g585
(dp1451
g1224
F0.006999999999999999
sssg85
(dp1452
S't-online.de'
p1453
(dp1454
g1224
F0.027000000000000003
ssg105
(dp1455
g1224
F0.011000000000000001
ssg601
(dp1456
g1224
F0.01
ssg1300
(dp1457
g1224
F0.019
ssS'web.de'
p1458
(dp1459
g1224
F0.0225
ssS'telekom.de'
p1460
(dp1461
g1224
F0.013999999999999999
ssS'youtube.com'
p1462
(dp1463
g1224
F0.040999999999999995
ssS'google.com'
p1464
(dp1465
g1224
F0.027999999999999997
ssS'amazon.com'
p1466
(dp1467
g1224
F0.013000000000000001
ssg401
(dp1468
g1224
F0.01
ssS'google.de'
p1469
(dp1470
g1224
F0.0915
ssS'ebay-kleinanzeigen.de'
p1471
(dp1472
g1224
F0.032
ssg1354
(dp1473
g1224
F0.019
ssS't-mobile.de'
p1474
(dp1475
g1224
F0.015
ssg289
(dp1476
g1224
F0.018000000000000002
ssS'bing.com'
p1477
(dp1478
g1224
F0.03
ssS'facebook.com'
p1479
(dp1480
g1224
F0.04
ssS'gmx.net'
p1481
(dp1482
g1224
F0.018500000000000003
ssS'ebay.de'
p1483
(dp1484
g1224
F0.0485
ssg137
(dp1485
g1224
F0.0175
ssg501
(dp1486
g1224
F0.015
sssg89
(dp1487
g1359
(dp1488
g1224
F0.053500000000000006
ssg1366
(dp1489
g1224
F0.041499999999999995
ssS'taobao.com'
p1490
(dp1491
g1224
F0.033
ssS'360.com'
p1492
(dp1493
g1224
F0.052500000000000005
ssS'360.cn'
p1494
g1389
sS'xinhuanet.com'
p1495
(dp1496
g1224
F0.049
ssg841
(dp1497
g1224
F0.04
ssS'cntv.cn'
p1498
(dp1499
g1224
F0.055499999999999994
ssg1364
(dp1500
g1224
F0.044000000000000004
ssg1380
(dp1501
g1224
F0.036500000000000005
sssg93
(dp1502
g1434
(dp1503
g1224
F0.009000000000000001
sssg97
(dp1504
g1005
(dp1505
g1224
F0.0885
ssg1161
(dp1506
g1224
F0.02
ssS'ebay.de'
p1507
(dp1508
g1224
F0.02
ssS'bing.com'
p1509
(dp1510
g1224
F0.023
ssg1474
(dp1511
g1224
F0.08
ssS'youtube.com'
p1512
(dp1513
g1224
F0.016
ssS'google.com'
p1514
(dp1515
g1224
F0.01
ssS'web.de'
p1516
(dp1517
g1224
F0.009000000000000001
ssg1354
(dp1518
g1224
F0.013999999999999999
ssg289
(dp1519
g1224
F0.009000000000000001
ssS'facebook.com'
p1520
(dp1521
g1224
F0.040999999999999995
ssS'google.de'
p1522
(dp1523
g1224
F0.08800000000000001
ssS'amazon.de'
p1524
g1454
sg401
(dp1525
g1224
F0.35950000000000004
sssg101
(dp1526
S'weibo.com'
p1527
(dp1528
g1224
F0.037000000000000005
ssS'baidu.com'
p1529
(dp1530
g1224
F0.397
ssg1370
(dp1531
g1224
F0.06249999999999999
ssS'taobao.com'
p1532
(dp1533
g1224
F0.057
ssS'360.cn'
p1534
g1365
sS'qq.com'
p1535
(dp1536
g1224
F0.07
ssS'sina.com.cn'
p1537
(dp1538
g1224
F0.036000000000000004
ssg1386
(dp1539
g1224
F0.0445
ssg1388
g1500
sS'hao123.com'
p1540
(dp1541
g1224
F0.07
sssg105
(dp1542
S'bing.com'
p1543
(dp1544
g1224
F0.021
ssg257
(dp1545
g1224
F0.015000000000000001
ssS'youtube.com'
p1546
(dp1547
g1224
F0.019
ssS'google.com'
p1548
(dp1549
g1224
F0.011000000000000001
ssg1029
(dp1550
g1224
F0.036000000000000004
ssg661
(dp1551
g1224
F0.009000000000000001
ssS'gmx.net'
p1552
(dp1553
g1224
F0.2095
ssS'facebook.com'
p1554
(dp1555
g1224
F0.055999999999999994
ssS'amazon.de'
p1556
g1455
sg1311
(dp1557
g1224
F0.094
sssg109
(dp1558
g433
(dp1559
g1224
F0.009000000000000001
sssg113
(dp1560
S'yahoo.com'
p1561
(dp1562
g1224
F0.039
ssg245
(dp1563
g1224
F0.0115
ssS'bing.com'
p1564
(dp1565
g1224
F0.01
ssg1209
(dp1566
g1224
F0.028999999999999998
ssS'reddit.com'
p1567
(dp1568
g1224
F0.013999999999999999
ssS'youtube.com'
p1569
(dp1570
g1224
F0.013999999999999999
ssS'google.com'
p1571
(dp1572
g1224
F0.24
ssS'twitter.com'
p1573
(dp1574
g1224
F0.01
ssS't.co'
p1575
(dp1576
g1224
F0.012
ssS'cnn.com'
p1577
(dp1578
g1224
F0.01
ssg733
(dp1579
g1224
F0.012
ssS'facebook.com'
p1580
(dp1581
g1224
F0.132
sssg117
(dp1582
g449
(dp1583
g1224
F0.027999999999999997
sssg121
(dp1584
g185
(dp1585
g1224
F0.045
sssg125
(dp1586
S'yahoo.co.jp'
p1587
(dp1588
g1224
F0.059000000000000004
ssS'youtube.com'
p1589
(dp1590
g1224
F0.006
ssS'google.com'
p1591
(dp1592
g1224
F0.025
ssS'live.com'
p1593
(dp1594
g1224
F0.006
ssS'amazon.co.jp'
p1595
(dp1596
g1224
F0.02
ssS'rakuten.co.jp'
p1597
(dp1598
g1224
F0.29800000000000004
ssS'google.co.jp'
p1599
(dp1600
g1224
F0.092
ssS'infoseek.co.jp'
p1601
(dp1602
g1224
F0.01
ssS'facebook.com'
p1603
(dp1604
g1224
F0.005
ssg313
(dp1605
g1224
F0.006
sssg129
(dp1606
S'dreevee.com'
p1607
(dp1608
g1224
F0.022000000000000002
ssg449
(dp1609
g1224
F0.027999999999999997
sssg133
(dp1610
g837
(dp1611
g1224
F0.017
ssS'betrad.com'
p1612
g1433
sg1434
(dp1613
g1224
F0.1905
ssg393
(dp1614
g1224
F0.012
ssg805
(dp1615
g1224
F0.013000000000000001
ssS'google.com'
p1616
(dp1617
g1224
F0.016
ssg1393
(dp1618
g1224
F0.067
ssS'gstatic.com'
p1619
(dp1620
g1224
F0.017
ssS'facebook.com'
p1621
(dp1622
g1224
F0.013000000000000001
ssS'googleapis.com'
p1623
(dp1624
g1224
F0.023
sssg137
(dp1625
S'yahoo.com'
p1626
(dp1627
g1224
F0.005
ssg105
g1557
sg729
(dp1628
g1224
F0.175
ssg1300
(dp1629
g1224
F0.0755
ssS'wikipedia.org'
p1630
g1312
sS'youtube.com'
p1631
(dp1632
g1224
F0.046
ssS'google.com'
p1633
(dp1634
g1224
F0.025
ssg1226
g1353
sg561
(dp1635
g1224
F0.17600000000000002
ssS'bing.com'
p1636
(dp1637
g1224
F0.006999999999999999
ssS'willhaben.at'
p1638
(dp1639
g1224
F0.008
ssS'gmx.net'
p1640
(dp1641
g1224
F0.005
ssS'facebook.com'
p1642
(dp1643
g1224
F0.033
ssS'amazon.de'
p1644
g1485
sg501
(dp1645
g1224
F0.146
sssg141
(dp1646
S'yahoo.com'
p1647
(dp1648
g1224
F0.005
ssg245
(dp1649
g1224
F0.022000000000000002
ssS'nicovideo.jp'
p1650
(dp1651
g1224
F0.015500000000000002
ssg1209
(dp1652
g1224
F0.063
ssS'infobae.com'
p1653
g1268
sS'yahoo.co.jp'
p1654
(dp1655
g1224
F0.006999999999999999
ssS'instagram.com'
p1656
(dp1657
g1224
F0.045
ssS'youtube.com'
p1658
(dp1659
g1224
F0.028999999999999998
ssS'google.com'
p1660
(dp1661
g1224
F0.047
ssS'reddit.com'
p1662
(dp1663
g1224
F0.006
ssS'espn.go.com'
p1664
(dp1665
g1224
F0.013000000000000001
ssS'huffingtonpost.com'
p1666
g1576
sg733
(dp1667
g1224
F0.024
ssS'twitter.com'
p1668
(dp1669
g1224
F0.16650000000000004
ssg205
(dp1670
g1224
F0.011000000000000001
ssg1213
(dp1671
g1224
F0.009000000000000001
ssS'facebook.com'
p1672
(dp1673
g1224
F0.057
ssg649
(dp1674
g1224
F0.01
ssg701
(dp1675
g1224
F0.009000000000000001
ssg921
(dp1676
g1224
F0.018000000000000002
sssg145
(dp1677
S'pinterest.com'
p1678
(dp1679
g1224
F0.008
sssg149
(dp1680
g893
(dp1681
g1224
F0.006
sssg153
(dp1682
g1434
(dp1683
g1224
F0.011000000000000001
sssg157
(dp1684
S'lazada.co.id'
p1685
(dp1686
g1224
F0.017
sssg161
(dp1687
g169
(dp1688
g1224
F0.01
sssg165
(dp1689
g1277
(dp1690
g1224
F0.07
ssg41
g1336
sg357
(dp1691
g1224
F0.02
ssg801
(dp1692
g1224
F0.009000000000000001
ssS'youtube.com'
p1693
(dp1694
g1224
F0.03
ssS'google.com'
p1695
(dp1696
g1224
F0.064
ssS'yahoo.com'
p1697
(dp1698
g1224
F0.051
ssg1201
(dp1699
g1224
F0.013000000000000001
ssS'facebook.com'
p1700
(dp1701
g1224
F0.17
ssg1089
(dp1702
g1224
F0.013999999999999999
sssg169
(dp1703
S'bing.com'
p1704
(dp1705
g1224
F0.015
ssg1306
(dp1706
g1224
F0.016
ssS'youtube.com'
p1707
(dp1708
g1224
F0.06
ssS'google.com'
p1709
(dp1710
g1224
F0.149
ssS'google.co.uk'
p1711
(dp1712
g1224
F0.039
ssg1125
(dp1713
g1224
F0.011000000000000001
ssS'facebook.com'
p1714
(dp1715
g1224
F0.036000000000000004
ssg161
g1688
sg669
(dp1716
g1224
F0.0825
ssg1173
(dp1717
g1224
F0.011000000000000001
sssg173
(dp1718
g1237
(dp1719
g1224
F0.013000000000000001
sssg177
(dp1720
g473
(dp1721
g1224
F0.052
ssS'yahoo.co.jp'
p1722
(dp1723
g1224
F0.039
ssS'rakuten.co.jp'
p1724
(dp1725
g1224
F0.031
ssg809
(dp1726
g1224
F0.022000000000000002
ssg553
(dp1727
g1224
F0.023
ssg201
(dp1728
g1224
F0.029500000000000002
ssg297
(dp1729
g1224
F0.046
ssg1601
(dp1730
g1224
F0.025
ssg1069
(dp1731
g1224
F0.04
ssS'google.co.jp'
p1732
(dp1733
g1224
F0.023
sssg181
(dp1734
g825
(dp1735
g1224
F0.015
sssg185
(dp1736
g241
(dp1737
g1224
F0.073
ssg1109
(dp1738
g1224
F0.01
ssg1685
(dp1739
g1224
F0.075
ssS'youtube.com'
p1740
(dp1741
g1224
F0.011000000000000001
ssg37
g1317
sg641
(dp1742
g1224
F0.019
ssg197
(dp1743
g1224
F0.035
ssS'popads.net'
p1744
(dp1745
g1224
F0.039
ssg989
(dp1746
g1224
F0.08
ssg121
g1585
sg669
(dp1747
g1224
F0.152
sssg189
(dp1748
g77
g1440
sg669
(dp1749
g1224
F0.008
ssg305
(dp1750
g1224
F0.027000000000000003
sssg193
(dp1751
S'twitch.tv'
p1752
(dp1753
g1224
F0.003
ssg1283
(dp1754
g1224
F0.313
ssS'youtube.com'
p1755
(dp1756
g1224
F0.032
ssS'google.com'
p1757
(dp1758
g1224
F0.026000000000000002
ssS'twitter.com'
p1759
(dp1760
g1224
F0.008
ssg493
(dp1761
g1224
F0.003
ssS'facebook.com'
p1762
(dp1763
g1224
F0.016
ssg233
(dp1764
g1224
F0.003
ssg229
(dp1765
g1224
F0.07949999999999999
ssg437
(dp1766
g1224
F0.004
sssg197
(dp1767
g185
g1743
ssg201
(dp1768
g1009
(dp1769
g1224
F0.1195
ssg849
(dp1770
g1224
F0.055
ssg1101
(dp1771
g1224
F0.021
ssS'pex.jp'
p1772
(dp1773
g1224
F0.0385
ssg177
g1728
sg1045
(dp1774
g1224
F0.034
ssg129
g1608
sS'warau.jp'
p1775
(dp1776
g1224
F0.02
ssS'fruitmail.net'
p1777
(dp1778
g1224
F0.022000000000000002
ssS'dietnavi.com'
p1779
(dp1780
g1224
F0.027000000000000003
sssg205
(dp1781
g669
(dp1782
g1224
F0.012
ssS't.co'
p1783
g1670
sg185
g1745
ssg209
(dp1784
S'yahoo.com'
p1785
(dp1786
g1224
F0.036000000000000004
ssg605
(dp1787
g1224
F0.0205
ssS'reddit.com'
p1788
(dp1789
g1224
F0.015
ssS'youtube.com'
p1790
(dp1791
g1224
F0.016
ssS'google.com'
p1792
(dp1793
g1224
F0.24100000000000002
ssS'amazon.com'
p1794
(dp1795
g1224
F0.013999999999999999
ssS'espn.go.com'
p1796
(dp1797
g1224
F0.0135
ssg1666
g1578
sS'facebook.com'
p1798
(dp1799
g1224
F0.075
ssg1213
(dp1800
g1224
F0.013999999999999999
ssg649
(dp1801
g1224
F0.1195
ssS'outbrain.com'
p1802
(dp1803
g1224
F0.0305
sssg213
(dp1804
S'yahoo.com'
p1805
(dp1806
g1224
F0.036000000000000004
ssg321
(dp1807
g1224
F0.0215
ssS'bing.com'
p1808
(dp1809
g1224
F0.016
ssg1157
(dp1810
g1224
F0.011000000000000001
ssS'youtube.com'
p1811
(dp1812
g1224
F0.01
ssS'google.com'
p1813
(dp1814
g1224
F0.35
ssS'live.com'
p1815
(dp1816
g1224
F0.011000000000000001
ssg1246
(dp1817
g1224
F0.0475
ssS'facebook.com'
p1818
(dp1819
g1224
F0.027000000000000003
ssg609
(dp1820
g1224
F0.018000000000000002
ssS'ebay.com'
p1821
(dp1822
g1224
F0.02
ssS'slickdeals.net'
p1823
g1245
ssg217
(dp1824
g669
(dp1825
g1224
F0.006999999999999999
sssg221
(dp1826
g1361
(dp1827
g1224
F0.028000000000000004
ssg1368
(dp1828
g1224
F0.18550000000000003
ssg1370
(dp1829
g1224
F0.062
ssS'taobao.com'
p1830
(dp1831
g1224
F0.055
ssS'360.cn'
p1832
g1383
sS'qq.com'
p1833
(dp1834
g1224
F0.126
ssg1384
(dp1835
g1224
F0.033
ssg593
(dp1836
g1224
F0.0495
ssg89
g1499
sS'hao123.com'
p1837
(dp1838
g1224
F0.0405
sssg225
(dp1839
S'live.com'
p1840
(dp1841
g1224
F0.01
sssg229
(dp1842
g345
(dp1843
g1224
F0.005
ssg1283
(dp1844
g1224
F0.204
ssS'wikipedia.org'
p1845
g1295
sS'youtube.com'
p1846
(dp1847
g1224
F0.054000000000000006
ssS'google.com'
p1848
(dp1849
g1224
F0.08800000000000001
ssg537
(dp1850
g1224
F0.005
ssS'gfycat.com'
p1851
g1765
sS'twitter.com'
p1852
(dp1853
g1224
F0.012
ssS'amazon.com'
p1854
(dp1855
g1224
F0.006999999999999999
ssS'facebook.com'
p1856
(dp1857
g1224
F0.05
sssg233
(dp1858
g1851
g1764
ssg237
(dp1859
S'yahoo.com'
p1860
(dp1861
g1224
F0.017
ssS'google.com.mx'
p1862
(dp1863
g1224
F0.01
ssS'google.es'
p1864
(dp1865
g1224
F0.013000000000000001
ssS'youtube.com'
p1866
(dp1867
g1224
F0.043
ssS'google.com'
p1868
(dp1869
g1224
F0.051
ssS'live.com'
p1870
(dp1871
g1224
F0.027000000000000003
ssg69
g1431
sS'amazon.com'
p1872
(dp1873
g1224
F0.009000000000000001
ssS'facebook.com'
p1874
(dp1875
g1224
F0.071
ssg1296
(dp1876
g1224
F0.14150000000000001
sssg241
(dp1877
g185
g1737
ssg245
(dp1878
S'yahoo.com'
p1879
(dp1880
g1224
F0.02
ssS'reddit.com'
p1881
(dp1882
g1224
F0.015
ssS'youtube.com'
p1883
(dp1884
g1224
F0.012
ssS'google.com'
p1885
(dp1886
g1224
F0.284
ssS'amazon.com'
p1887
(dp1888
g1224
F0.011000000000000001
ssg629
(dp1889
g1224
F0.015
ssS't.co'
p1890
g1649
sg733
(dp1891
g1224
F0.0165
ssS'facebook.com'
p1892
(dp1893
g1224
F0.094
ssg113
g1563
ssg249
(dp1894
g1161
(dp1895
g1224
F0.033
sssg253
(dp1896
g365
(dp1897
g1224
F0.02
sssg257
(dp1898
g105
g1545
sg729
(dp1899
g1224
F0.040999999999999995
ssS'wikipedia.org'
p1900
g1301
sS'youtube.com'
p1901
(dp1902
g1224
F0.04
ssS'google.com'
p1903
(dp1904
g1224
F0.031
ssg1226
g1342
sg561
(dp1905
g1224
F0.047
ssS'bing.com'
p1906
(dp1907
g1224
F0.016
ssS'google.de'
p1908
(dp1909
g1224
F0.017
ssS'facebook.com'
p1910
(dp1911
g1224
F0.087
ssS'amazon.de'
p1912
g1457
sg1311
g1629
sg501
(dp1913
g1224
F0.036000000000000004
sssg261
(dp1914
S'dmm.co.jp'
p1915
(dp1916
g1224
F0.019
sssg265
(dp1917
g1650
(dp1918
g1224
F0.02
sssg269
(dp1919
S't-online.de'
p1920
g1517
sg1460
(dp1921
g1224
F0.008
ssS'bing.com'
p1922
(dp1923
g1224
F0.024
ssS'youtube.com'
p1924
(dp1925
g1224
F0.027000000000000003
ssS'google.com'
p1926
(dp1927
g1224
F0.013000000000000001
ssg1469
(dp1928
g1224
F0.045000000000000005
ssg1471
(dp1929
g1224
F0.015
ssg401
(dp1930
g1224
F0.008
ssg289
(dp1931
g1224
F0.009000000000000001
ssg1483
(dp1932
g1224
F0.021
ssg1552
(dp1933
g1224
F0.0115
ssS'facebook.com'
p1934
(dp1935
g1224
F0.059000000000000004
ssg1644
g1459
sg1354
(dp1936
g1224
F0.013000000000000001
sssg273
(dp1937
g1460
(dp1938
g1224
F0.023
ssg1474
(dp1939
g1224
F0.021
sssg277
(dp1940
g681
(dp1941
g1224
F0.01
sssg281
(dp1942
S'sina.com.cn'
p1943
(dp1944
g1224
F0.046
ssg1368
(dp1945
g1224
F0.206
ssg1370
(dp1946
g1224
F0.064
ssS'taobao.com'
p1947
(dp1948
g1224
F0.057
ssg1832
g1375
sS'qq.com'
p1949
(dp1950
g1224
F0.08800000000000001
ssS'weibo.com'
p1951
(dp1952
g1224
F0.038
ssg1386
(dp1953
g1224
F0.0485
ssg1388
g1493
sS'hao123.com'
p1954
(dp1955
g1224
F0.066
sssg285
(dp1956
g1840
(dp1957
g1224
F0.021
ssg1280
(dp1958
g1224
F0.004
sssg289
(dp1959
S'msn.com'
p1960
(dp1961
g1224
F0.009000000000000001
ssg97
g1519
sS'bing.com'
p1962
(dp1963
g1224
F0.035
ssS'youtube.com'
p1964
(dp1965
g1224
F0.011000000000000001
ssg269
g1931
sS'aol.com'
p1966
(dp1967
g1224
F0.1975
ssS'facebook.com'
p1968
(dp1969
g1224
F0.04
ssg1085
(dp1970
g1224
F0.019
ssg1469
(dp1971
g1224
F0.063
ssS'amazon.de'
p1972
g1476
ssg293
(dp1973
S'yahoo.com'
p1974
(dp1975
g1224
F0.02
ssS'olx.co.id'
p1976
(dp1977
g1224
F0.018000000000000002
ssg1685
(dp1978
g1224
F0.019000000000000003
ssS'google.co.id'
p1979
(dp1980
g1224
F0.16899999999999998
ssS'youtube.com'
p1981
(dp1982
g1224
F0.034
ssS'google.com'
p1983
(dp1984
g1224
F0.10800000000000001
ssS'klikbca.com'
p1985
(dp1986
g1224
F0.013000000000000001
ssS'facebook.com'
p1987
(dp1988
g1224
F0.063
ssS'tokopedia.com'
p1989
(dp1990
g1224
F0.0885
ssg753
(dp1991
g1224
F0.014000000000000002
sssg297
(dp1992
g849
(dp1993
g1224
F0.021
ssg177
g1729
ssg301
(dp1994
g473
(dp1995
g1224
F0.038
sssg305
(dp1996
g189
g1750
sg853
(dp1997
g1224
F0.013999999999999999
ssS'youtube.com'
p1998
(dp1999
g1224
F0.035
ssS'google.com'
p2000
(dp2001
g1224
F0.105
ssS'amazon.com'
p2002
(dp2003
g1224
F0.015
ssg621
(dp2004
g1224
F0.016
ssg981
(dp2005
g1224
F0.018000000000000002
ssS'facebook.com'
p2006
(dp2007
g1224
F0.035
ssg77
g1448
sS'vk.com'
p2008
(dp2009
g1224
F0.013999999999999999
ssS'ebay.com'
p2010
(dp2011
g1224
F0.018000000000000002
sssg309
(dp2012
S'haosou.com'
p2013
(dp2014
g1224
F0.0425
ssS'facebook.com'
p2015
(dp2016
g1224
F0.021
ssg1361
(dp2017
g1224
F0.017
ssg1366
(dp2018
g1224
F0.079
ssg1368
(dp2019
g1224
F0.054000000000000006
ssg1165
(dp2020
g1224
F0.025
ssg477
(dp2021
g1224
F0.0245
ssg1492
g1955
sg1832
g1391
sg1376
(dp2022
g1224
F0.041
ssg1495
(dp2023
g1224
F0.0395
ssg1498
g1838
sg1384
(dp2024
g1224
F0.0325
ssS'youtube.com'
p2025
(dp2026
g1224
F0.023
ssg1364
g1541
sg1380
(dp2027
g1224
F0.07200000000000001
ssg841
(dp2028
g1224
F0.08
sssg313
(dp2029
g125
g1605
ssg317
(dp2030
g561
(dp2031
g1224
F0.013000000000000001
sssg321
(dp2032
S'yahoo.com'
p2033
(dp2034
g1224
F0.027999999999999997
ssg333
(dp2035
g1224
F0.013000000000000001
ssS'bing.com'
p2036
(dp2037
g1224
F0.009000000000000001
ssS'slickdeals.net'
p2038
g1231
sg609
(dp2039
g1224
F0.0185
ssS'google.com'
p2040
(dp2041
g1224
F0.317
ssS'live.com'
p2042
(dp2043
g1224
F0.009000000000000001
ssg361
(dp2044
g1224
F0.015
ssg365
(dp2045
g1224
F0.015
ssg1244
g1807
sS'amazon.com'
p2046
(dp2047
g1224
F0.083
ssS'facebook.com'
p2048
(dp2049
g1224
F0.039
ssS'ebay.com'
p2050
(dp2051
g1224
F0.011000000000000001
sssg325
(dp2052
S'yahoo.com'
p2053
(dp2054
g1224
F0.026000000000000002
ssS'bing.com'
p2055
(dp2056
g1224
F0.021
ssS'youtube.com'
p2057
(dp2058
g1224
F0.03
ssg705
(dp2059
g1224
F0.043
ssS'live.com'
p2060
(dp2061
g1224
F0.021
ssS'paypal.com'
p2062
(dp2063
g1224
F0.018000000000000002
ssS'google.co.uk'
p2064
(dp2065
g1224
F0.0815
ssS'facebook.com'
p2066
(dp2067
g1224
F0.052000000000000005
ssS'google.com'
p2068
(dp2069
g1224
F0.06
ssS'ebay.com'
p2070
(dp2071
g1224
F0.040999999999999995
sssg329
(dp2072
g1678
(dp2073
g1224
F0.009000000000000001
sssg333
(dp2074
S'yahoo.com'
p2075
(dp2076
g1224
F0.037000000000000005
ssS'target.com'
p2077
g2035
sS'bing.com'
p2078
(dp2079
g1224
F0.009000000000000001
ssS'pinterest.com'
p2080
(dp2081
g1224
F0.047
ssS'coupons.com'
p2082
(dp2083
g1224
F0.039
ssS'google.com'
p2084
(dp2085
g1224
F0.265
ssS'live.com'
p2086
(dp2087
g1224
F0.02
ssg365
(dp2088
g1224
F0.23
ssS'amazon.com'
p2089
(dp2090
g1224
F0.032
ssS'facebook.com'
p2091
(dp2092
g1224
F0.076
ssS'outbrain.com'
p2093
(dp2094
g1224
F0.013000000000000001
sssg337
(dp2095
g1161
(dp2096
g1224
F0.012
sssg341
(dp2097
S'msn.com'
p2098
(dp2099
g1224
F0.006999999999999999
sssg345
(dp2100
g229
g1843
sg1851
g1753
ssg349
(dp2101
g477
(dp2102
g1224
F0.015
sssg353
(dp2103
g1393
(dp2104
g1224
F0.012
sssg357
(dp2105
g165
g1691
ssg361
(dp2106
S'yahoo.com'
p2107
(dp2108
g1224
F0.046
ssS'target.com'
p2109
g2044
sS'bing.com'
p2110
(dp2111
g1224
F0.012
ssS'slickdeals.net'
p2112
g1243
sg1033
(dp2113
g1224
F0.012
ssg609
(dp2114
g1224
F0.022000000000000002
ssS'google.com'
p2115
(dp2116
g1224
F0.27399999999999997
ssS'live.com'
p2117
(dp2118
g1224
F0.016
ssS'amazon.com'
p2119
(dp2120
g1224
F0.055999999999999994
ssS'facebook.com'
p2121
(dp2122
g1224
F0.038
sssg365
(dp2123
S'target.com'
p2124
g2045
sg333
g2088
sg1149
(dp2125
g1224
F0.01
ssg861
(dp2126
g1224
F0.047
ssg973
(dp2127
g1224
F0.008
ssS'google.com'
p2128
(dp2129
g1224
F0.047
ssg433
(dp2130
g1224
F0.11649999999999999
ssg253
g1897
sg397
(dp2131
g1224
F0.06
ssS'facebook.com'
p2132
(dp2133
g1224
F0.023
sssg369
(dp2134
S'yahoo.com'
p2135
(dp2136
g1224
F0.036000000000000004
ssg1288
(dp2137
g1224
F0.021
ssS'google.co.in'
p2138
(dp2139
g1224
F0.035
ssS'bing.com'
p2140
(dp2141
g1224
F0.047
ssg865
(dp2142
g1224
F0.019
ssS'google.com'
p2143
(dp2144
g1224
F0.355
ssg1169
(dp2145
g1224
F0.017
ssS'google.co.uk'
p2146
(dp2147
g1224
F0.027999999999999997
ssS'facebook.com'
p2148
(dp2149
g1224
F0.013000000000000001
ssg905
(dp2150
g1224
F0.017
ssg825
(dp2151
g1224
F0.017
sssg373
(dp2152
g1033
(dp2153
g1224
F0.006999999999999999
sssg377
(dp2154
g41
g1327
ssg381
(dp2155
S'yahoo.com'
p2156
(dp2157
g1224
F0.048
ssS'bing.com'
p2158
(dp2159
g1224
F0.015
ssS'coupons.com'
p2160
(dp2161
g1224
F0.016
ssS'google.com'
p2162
(dp2163
g1224
F0.318
ssS'live.com'
p2164
(dp2165
g1224
F0.013999999999999999
ssg1966
(dp2166
g1224
F0.013000000000000001
ssg397
(dp2167
g1224
F0.024
ssS'amazon.com'
p2168
(dp2169
g1224
F0.027999999999999997
ssS'facebook.com'
p2170
(dp2171
g1224
F0.054000000000000006
ssg673
(dp2172
g1224
F0.012
sssg385
(dp2173
g549
(dp2174
g1224
F0.018000000000000002
sssg389
(dp2175
g925
(dp2176
g1224
F0.008
sssg393
(dp2177
g133
g1614
ssg397
(dp2178
S'yahoo.com'
p2179
(dp2180
g1224
F0.022000000000000002
ssS'smartsource.com'
p2181
(dp2182
g1224
F0.013000000000000001
ssS'live.com'
p2183
(dp2184
g1224
F0.011000000000000001
ssg453
(dp2185
g1224
F0.012
ssS'coupons.com'
p2186
(dp2187
g1224
F0.061
ssS'google.com'
p2188
(dp2189
g1224
F0.215
ssS'amazon.com'
p2190
(dp2191
g1224
F0.013000000000000001
ssg365
g2131
sg657
(dp2192
g1224
F0.013000000000000001
ssS'facebook.com'
p2193
(dp2194
g1224
F0.08900000000000001
ssg381
g2167
ssg401
(dp2195
g1453
g1525
sg1460
(dp2196
g1224
F0.11850000000000001
ssS'ebay.de'
p2197
(dp2198
g1224
F0.01
ssS'bing.com'
p2199
(dp2200
g1224
F0.019
ssS'web.de'
p2201
g1930
sg1117
(dp2202
g1224
F0.0635
ssg1037
(dp2203
g1224
F0.008
ssS'google.de'
p2204
(dp2205
g1224
F0.062
ssS'facebook.com'
p2206
(dp2207
g1224
F0.02
ssS'amazon.de'
p2208
g1468
ssg405
(dp2209
g1354
(dp2210
g1224
F0.012
sssg409
(dp2211
S'wikipedia.org'
p2212
g1285
ssg413
(dp2213
g1802
(dp2214
g1224
F0.015
sssg417
(dp2215
S'amazon.co.jp'
p2216
(dp2217
g1224
F0.016
ssg1597
(dp2218
g1224
F0.013999999999999999
sssg421
(dp2219
g69
g1430
ssg425
(dp2220
g1393
(dp2221
g1224
F0.009000000000000001
sssg429
(dp2222
g1280
(dp2223
g1224
F0.011000000000000001
sssg433
(dp2224
S'yahoo.com'
p2225
(dp2226
g1224
F0.035
ssg333
g2083
sS'bing.com'
p2227
(dp2228
g1224
F0.02
ssS'groupon.com'
p2229
(dp2230
g1224
F0.006999999999999999
ssg1033
(dp2231
g1224
F0.010499999999999999
ssS'google.com'
p2232
(dp2233
g1224
F0.36
ssS'live.com'
p2234
(dp2235
g1224
F0.008
ssg109
g1559
sg397
g2187
sg365
g2130
sS'amazon.com'
p2236
(dp2237
g1224
F0.008
ssS'facebook.com'
p2238
(dp2239
g1224
F0.024
ssg381
g2161
ssg437
(dp2240
g1141
(dp2241
g1224
F0.012
ssS'instagram.com'
p2242
(dp2243
g1224
F0.006
ssS'youtube.com'
p2244
(dp2245
g1224
F0.033
ssS'google.com'
p2246
(dp2247
g1224
F0.037000000000000005
ssS'amazon.com'
p2248
(dp2249
g1224
F0.006
ssg1851
g1766
sS'twitter.com'
p2250
(dp2251
g1224
F0.01
ssg637
(dp2252
g1224
F0.005
ssg529
(dp2253
g1224
F0.19699999999999998
ssS'facebook.com'
p2254
(dp2255
g1224
F0.02
ssS'media.tumblr.com'
p2256
(dp2257
g1224
F0.005
sssg441
(dp2258
g929
(dp2259
g1224
F0.0665
ssg2212
g1310
sS'youtube.com'
p2260
(dp2261
g1224
F0.027000000000000003
ssS'tsite.jp'
p2262
(dp2263
g1224
F0.081
ssg589
(dp2264
g1224
F0.009000000000000001
ssg1915
(dp2265
g1224
F0.15
ssg177
g1733
sS'dmm.com'
p2266
(dp2267
g1224
F0.098
ssg125
g1600
sS'twitter.com'
p2268
(dp2269
g1224
F0.013999999999999999
ssg1053
(dp2270
g1224
F0.019
ssS'facebook.com'
p2271
(dp2272
g1224
F0.011000000000000001
ssg749
(dp2273
g1224
F0.027999999999999997
ssg1290
(dp2274
g1224
F0.0665
ssg961
(dp2275
g1224
F0.07050000000000001
ssg849
(dp2276
g1224
F0.027000000000000003
ssg1153
(dp2277
g1224
F0.016
ssS'google.com'
p2278
(dp2279
g1224
F0.023
ssg1181
(dp2280
g1224
F0.08549999999999999
ssg549
(dp2281
g1224
F0.034
ssg1601
(dp2282
g1224
F0.038
ssg1772
(dp2283
g1224
F0.018000000000000002
sssg445
(dp2284
g77
g1438
ssg449
(dp2285
g849
(dp2286
g1224
F0.239
ssg773
(dp2287
g1224
F0.035
ssg117
g1583
sg2262
(dp2288
g1224
F0.0405
ssg777
(dp2289
g1224
F0.043
ssS'gamefactory.jp'
p2290
(dp2291
g1224
F0.028999999999999998
ssS'a-q-f.com'
p2292
(dp2293
g1224
F0.031
ssS'gendama.jp'
p2294
g1609
sg897
(dp2295
g1224
F0.018000000000000002
ssS'yahoo.co.jp'
p2296
(dp2297
g1224
F0.109
sssg453
(dp2298
g397
g2185
ssg457
(dp2299
g1009
(dp2300
g1224
F0.066
ssg473
(dp2301
g1224
F0.049
ssg2262
(dp2302
g1224
F0.013999999999999999
ssS'yahoo.co.jp'
p2303
(dp2304
g1224
F0.05
ssS'google.com'
p2305
(dp2306
g1224
F0.021
ssg1041
(dp2307
g1224
F0.024
ssS'rakuten.co.jp'
p2308
(dp2309
g1224
F0.037000000000000005
ssg549
(dp2310
g1224
F0.1495
ssS'pointtown.com'
p2311
(dp2312
g1224
F0.02
ssg1607
g1773
sS'google.co.jp'
p2313
g2283
ssg461
(dp2314
g77
g1442
ssg465
(dp2315
g925
(dp2316
g1224
F0.006999999999999999
sssg469
(dp2317
S'yahoo.com'
p2318
(dp2319
g1224
F0.035
ssS'slickdeals.net'
p2320
g1242
sS'reddit.com'
p2321
(dp2322
g1224
F0.019
ssS'youtube.com'
p2323
(dp2324
g1224
F0.021
ssS'google.com'
p2325
(dp2326
g1224
F0.20800000000000002
ssS'amazon.com'
p2327
(dp2328
g1224
F0.013999999999999999
ssS'twitter.com'
p2329
(dp2330
g1224
F0.021
ssS't.co'
p2331
g1665
sS'cnn.com'
p2332
g1797
sS'facebook.com'
p2333
(dp2334
g1224
F0.083
ssg649
(dp2335
g1224
F0.028999999999999998
ssg1802
(dp2336
g1224
F0.019999999999999997
sssg473
(dp2337
g1009
(dp2338
g1224
F0.126
ssg849
(dp2339
g1224
F0.032
ssg457
g2301
sg177
g1721
sg957
(dp2340
g1224
F0.107
ssg449
g2291
sg969
(dp2341
g1224
F0.038
ssg793
(dp2342
g1224
F0.064
ssg301
g1995
sg549
(dp2343
g1224
F0.013999999999999999
ssg913
(dp2344
g1224
F0.040999999999999995
ssg833
(dp2345
g1224
F0.027000000000000003
ssg1073
(dp2346
g1224
F0.04
sssg477
(dp2347
g1359
(dp2348
g1224
F0.057999999999999996
ssg1277
(dp2349
g1224
F0.01
ssS'weibo.com'
p2350
(dp2351
g1224
F0.0235
ssg841
(dp2352
g1224
F0.07200000000000001
ssg941
(dp2353
g1224
F0.025
ssg1366
(dp2354
g1224
F0.07
ssg1368
(dp2355
g1224
F0.054000000000000006
ssg33
g1315
sg1165
(dp2356
g1224
F0.032
ssg1364
g1533
sg349
g2102
sg1492
g1948
sg53
g1373
sS'qq.com'
p2357
(dp2358
g1224
F0.041999999999999996
ssg1495
(dp2359
g1224
F0.051
ssg1380
(dp2360
g1224
F0.066
ssg1498
g1831
sg77
g1446
sS'google.com'
p2361
(dp2362
g1224
F0.027000000000000003
ssg1388
g1491
sg309
g2021
ssg481
(dp2363
g845
(dp2364
g1224
F0.057499999999999996
ssS'yahoo.com'
p2365
(dp2366
g1224
F0.015
ssg1653
g1264
sS'google.es'
p2367
(dp2368
g1224
F0.013000000000000001
ssS'youtube.com'
p2369
(dp2370
g1224
F0.027000000000000003
ssS'google.com'
p2371
(dp2372
g1224
F0.062
ssS'live.com'
p2373
(dp2374
g1224
F0.016
ssS'facebook.com'
p2375
(dp2376
g1224
F0.09699999999999999
ssS'outbrain.com'
p2377
(dp2378
g1224
F0.012
ssg1296
(dp2379
g1224
F0.0935
sssg485
(dp2380
g41
g1331
sg781
(dp2381
g1224
F0.006
ssg61
g1409
ssg489
(dp2382
g2098
(dp2383
g1224
F0.006999999999999999
ssg321
g2047
sg601
(dp2384
g1224
F0.025
ssg21
g1247
sg333
g2090
sg1274
(dp2385
g1224
F0.02
ssg1237
(dp2386
g1224
F0.045500000000000006
ssS'live.com'
p2387
(dp2388
g1224
F0.0125
ssg629
(dp2389
g1224
F0.013999999999999999
ssg937
(dp2390
g1224
F0.026000000000000002
ssg901
(dp2391
g1224
F0.08199999999999999
ssg605
(dp2392
g1224
F0.013999999999999999
ssg381
g2169
sg1644
g1467
sg677
(dp2393
g1224
F0.013000000000000001
ssS'bing.com'
p2394
(dp2395
g1224
F0.0075
ssS'etsy.com'
p2396
(dp2397
g1224
F0.037000000000000005
ssg361
g2120
sg705
(dp2398
g1224
F0.039
ssg433
g2237
sg397
g2191
sg609
(dp2399
g1224
F0.051
ssg1293
(dp2400
g1224
F0.0325
ssg437
g2249
sg1288
(dp2401
g1224
F0.008
ssS'reddit.com'
p2402
(dp2403
g1224
F0.009000000000000001
ssg1664
g2328
sg2332
g1795
sg213
g1817
sg825
(dp2404
g1224
F0.018000000000000002
ssg229
g1855
sg237
g1873
sg1298
(dp2405
g1224
F0.021500000000000002
ssg245
g1888
sg1157
(dp2406
g1224
F0.08800000000000001
ssg1678
(dp2407
g1224
F0.016
ssg1165
(dp2408
g1224
F0.017
ssg529
(dp2409
g1224
F0.008
ssg1304
(dp2410
g1224
F0.1205
ssg1966
(dp2411
g1224
F0.023
ssg1033
(dp2412
g1224
F0.01
ssg893
(dp2413
g1224
F0.011000000000000001
ssg305
g2003
ssg493
(dp2414
g437
g2257
sg1851
g1761
ssg497
(dp2415
S'yahoo.com'
p2416
(dp2417
g1224
F0.017
ssg1384
(dp2418
g1224
F0.011000000000000001
ssg1165
(dp2419
g1224
F0.034
ssS'wikipedia.org'
p2420
g1278
sS'baidu.com'
p2421
(dp2422
g1224
F0.021
ssS'google.com'
p2423
(dp2424
g1224
F0.046
ssg781
(dp2425
g1224
F0.027999999999999997
ssS'taobao.com'
p2426
g2349
sg589
(dp2427
g1224
F0.028999999999999998
ssg1376
(dp2428
g1224
F0.011
ssS'youtube.com'
p2429
(dp2430
g1224
F0.036000000000000004
ssS'facebook.com'
p2431
(dp2432
g1224
F0.034
ssg165
g1690
ssg501
(dp2433
S'bing.com'
p2434
(dp2435
g1224
F0.012
ssg729
(dp2436
g1224
F0.0355
ssg1300
g1913
sS'wikipedia.org'
p2437
g1313
sS'youtube.com'
p2438
(dp2439
g1224
F0.036000000000000004
ssS'google.com'
p2440
(dp2441
g1224
F0.04
ssg561
(dp2442
g1224
F0.028999999999999998
ssS'google.de'
p2443
(dp2444
g1224
F0.039
ssS'facebook.com'
p2445
(dp2446
g1224
F0.077
ssS'amazon.de'
p2447
g1486
sS'google.at'
p2448
g1645
ssg505
(dp2449
S'weibo.com'
p2450
(dp2451
g1224
F0.035
ssS'baidu.com'
p2452
(dp2453
g1224
F0.33399999999999996
ssg1370
(dp2454
g1224
F0.059500000000000004
ssS'taobao.com'
p2455
g2360
sS'360.cn'
p2456
g1381
sS'qq.com'
p2457
(dp2458
g1224
F0.061
ssS'sina.com.cn'
p2459
(dp2460
g1224
F0.034
ssg1386
(dp2461
g1224
F0.0425
ssg1388
g1501
sS'hao123.com'
p2462
g2027
ssg509
(dp2463
S'yahoo.com'
p2464
(dp2465
g1224
F0.019
ssg677
(dp2466
g1224
F0.16549999999999998
ssS'wikipedia.org'
p2467
g1289
sS'youtube.com'
p2468
(dp2469
g1224
F0.078
ssS'google.com'
p2470
(dp2471
g1224
F0.044000000000000004
ssg1840
(dp2472
g1224
F0.014
ssS'amazon.com'
p2473
g2401
sS'twitter.com'
p2474
(dp2475
g1224
F0.005
ssg237
g1863
sg69
g1420
sg369
g2137
sS'facebook.com'
p2476
(dp2477
g1224
F0.067
ssS'msn.com'
p2478
(dp2479
g1224
F0.006999999999999999
sssg513
(dp2480
g1966
(dp2481
g1224
F0.01
sssg517
(dp2482
S'yahoo.com'
p2483
(dp2484
g1224
F0.024
ssS'bing.com'
p2485
(dp2486
g1224
F0.018000000000000002
ssS'twitter.com'
p2487
(dp2488
g1224
F0.013999999999999999
ssS'youtube.com'
p2489
(dp2490
g1224
F0.028999999999999998
ssg705
(dp2491
g1224
F0.011
ssS'live.com'
p2492
(dp2493
g1224
F0.013000000000000001
ssg2064
(dp2494
g1224
F0.0895
ssg1213
(dp2495
g1224
F0.101
ssS'facebook.com'
p2496
(dp2497
g1224
F0.07400000000000001
ssS'google.com'
p2498
(dp2499
g1224
F0.081
sssg521
(dp2500
S'yahoo.com'
p2501
(dp2502
g1224
F0.015
ssg333
g2081
sg329
g2073
sg2396
(dp2503
g1224
F0.029500000000000002
ssg1656
(dp2504
g1224
F0.006999999999999999
ssg529
(dp2505
g1224
F0.009000000000000001
ssS'google.com'
p2506
(dp2507
g1224
F0.20199999999999999
ssS'amazon.com'
p2508
g2407
sS'google.de'
p2509
(dp2510
g1224
F0.009000000000000001
ssS'twitter.com'
p2511
(dp2512
g1224
F0.012
ssg145
g1679
sS'youtube.com'
p2513
(dp2514
g1224
F0.018000000000000002
ssS'facebook.com'
p2515
(dp2516
g1224
F0.067
sssg525
(dp2517
S'yahoo.com'
p2518
(dp2519
g1224
F0.009000000000000001
ssg521
g2504
sg1283
(dp2520
g1224
F0.0135
ssS'youtube.com'
p2521
(dp2522
g1224
F0.055
ssS'google.com'
p2523
(dp2524
g1224
F0.127
ssg529
(dp2525
g1224
F0.01
ssg1668
(dp2526
g1224
F0.0325
ssg1783
g1657
sS'google.co.uk'
p2527
(dp2528
g1224
F0.006
ssg1293
(dp2529
g1224
F0.07
ssg909
(dp2530
g1224
F0.008
ssg437
g2243
ssg529
(dp2531
S'yahoo.com'
p2532
(dp2533
g1224
F0.009000000000000001
ssg1678
g2505
sS'reddit.com'
p2534
(dp2535
g1224
F0.011000000000000001
ssS'instagram.com'
p2536
g2525
sS'youtube.com'
p2537
(dp2538
g1224
F0.055
ssS'google.com'
p2539
(dp2540
g1224
F0.122
ssS'wikipedia.org'
p2541
g1303
sS'twitter.com'
p2542
(dp2543
g1224
F0.028999999999999998
ssS'amazon.com'
p2544
g2409
sS'facebook.com'
p2545
(dp2546
g1224
F0.07200000000000001
ssg437
g2253
ssg533
(dp2547
g41
g1329
ssg537
(dp2548
g229
g1850
ssg541
(dp2549
g1601
(dp2550
g1224
F0.016
sssg545
(dp2551
g1361
(dp2552
g1224
F0.025500000000000002
ssg1368
(dp2553
g1224
F0.198
ssg1370
(dp2554
g1224
F0.06
ssS'taobao.com'
p2555
g2359
sg1832
g1379
sS'qq.com'
p2556
(dp2557
g1224
F0.084
ssS'sina.com.cn'
p2558
(dp2559
g1224
F0.042
ssg1386
(dp2560
g1224
F0.045
ssS'tmall.com'
p2561
g1496
sg1837
g2023
ssg549
(dp2562
g1009
(dp2563
g1224
F0.17
ssS'gamefactory.jp'
p2564
g2343
sg385
g2174
sS'yahoo.co.jp'
p2565
(dp2566
g1224
F0.045
ssS'google.com'
p2567
(dp2568
g1224
F0.013999999999999999
ssg1772
g2310
sS'rakuten.co.jp'
p2569
(dp2570
g1224
F0.013000000000000001
ssS'google.co.jp'
p2571
g2281
sg1061
(dp2572
g1224
F0.012
ssS'dietnavi.com'
p2573
(dp2574
g1224
F0.012
sssg553
(dp2575
g177
g1727
ssg557
(dp2576
g925
(dp2577
g1224
F0.0115
ssS'yahoo.com'
p2578
(dp2579
g1224
F0.017
ssg1685
(dp2580
g1224
F0.105
ssS'wikipedia.org'
p2581
g1282
sS'youtube.com'
p2582
(dp2583
g1224
F0.051
ssS'google.com'
p2584
(dp2585
g1224
F0.061
ssg717
(dp2586
g1224
F0.006
ssS'bukalapak.com'
p2587
g1980
sS'twitter.com'
p2588
(dp2589
g1224
F0.006
ssS'facebook.com'
p2590
(dp2591
g1224
F0.042
ssg741
(dp2592
g1224
F0.074
ssg753
(dp2593
g1224
F0.09250000000000001
sssg561
(dp2594
g317
g2031
sS'bing.com'
p2595
(dp2596
g1224
F0.021
ssg729
(dp2597
g1224
F0.025
ssS'orf.at'
p2598
g1905
sS'google.com'
p2599
(dp2600
g1224
F0.026000000000000002
ssg1226
g1347
sS'derstandard.at'
p2601
g2442
sS'facebook.com'
p2602
(dp2603
g1224
F0.055
ssS'google.de'
p2604
(dp2605
g1224
F0.068
ssS'google.at'
p2606
g1635
sS'outbrain.com'
p2607
(dp2608
g1224
F0.034
sssg565
(dp2609
g1601
(dp2610
g1224
F0.015
sssg569
(dp2611
g849
(dp2612
g1224
F0.084
sssg573
(dp2613
g1255
(dp2614
g1224
F0.005
sssg577
(dp2615
S'ebay.de'
p2616
(dp2617
g1224
F0.019
ssg105
g1553
sg1025
(dp2618
g1224
F0.011000000000000001
ssS'youtube.com'
p2619
(dp2620
g1224
F0.027999999999999997
ssS'google.com'
p2621
(dp2622
g1224
F0.013000000000000001
ssg1516
g1933
sg1471
(dp2623
g1224
F0.017
ssS'bing.com'
p2624
(dp2625
g1224
F0.023
ssS'facebook.com'
p2626
(dp2627
g1224
F0.06
ssg1469
(dp2628
g1224
F0.041
ssg1644
g1482
sg1311
g1641
ssg581
(dp2629
g585
(dp2630
g1224
F0.01
sssg585
(dp2631
g761
(dp2632
g1224
F0.009000000000000001
ssg925
(dp2633
g1224
F0.031
ssg681
(dp2634
g1224
F0.24
ssS'wikipedia.org'
p2635
g1292
sS'youtube.com'
p2636
(dp2637
g1224
F0.031
ssg1304
(dp2638
g1224
F0.04
ssg965
(dp2639
g1224
F0.006
ssg369
g2139
sS'facebook.com'
p2640
(dp2641
g1224
F0.0235
ssg581
g2630
sg81
g1451
sS'indiatimes.com'
p2642
(dp2643
g1224
F0.005
ssg1001
(dp2644
g1224
F0.006999999999999999
sssg589
(dp2645
S'google.com.tw'
p2646
g1328
sS'google.com.hk'
p2647
g2427
sS'bing.com'
p2648
(dp2649
g1224
F0.012
ssS'youtube.com'
p2650
(dp2651
g1224
F0.019
ssS'google.com'
p2652
(dp2653
g1224
F0.059000000000000004
ssS'yahoo.com'
p2654
(dp2655
g1224
F0.077
ssS'google.co.jp'
p2656
g2264
sS'facebook.com'
p2657
(dp2658
g1224
F0.039
ssg817
(dp2659
g1224
F0.0225
ssg781
(dp2660
g1224
F0.021
sssg593
(dp2661
S'haosou.com'
p2662
(dp2663
g1224
F0.049
ssg689
(dp2664
g1224
F0.046
ssS'baidu.com'
p2665
(dp2666
g1224
F0.043
ssg1492
g1953
sS'360.cn'
p2667
g1387
sS'qq.com'
p2668
(dp2669
g1224
F0.025
ssg1495
g2560
sg841
(dp2670
g1224
F0.076
ssg1498
g1836
sS'china.com.cn'
p2671
g1539
sS'cnzz.com'
p2672
g2461
ssg597
(dp2673
g1298
(dp2674
g1224
F0.012
ssg1288
g2479
sg1280
(dp2675
g1224
F0.044
ssg1161
(dp2676
g1224
F0.025
ssg1013
(dp2677
g1224
F0.005
ssS'youtube.com'
p2678
(dp2679
g1224
F0.049
ssS'google.com'
p2680
(dp2681
g1224
F0.054000000000000006
ssg1840
(dp2682
g1224
F0.11599999999999999
ssg341
g2099
sg289
g1961
sS'amazon.com'
p2683
g2383
sS'facebook.com'
p2684
(dp2685
g1224
F0.071
ssS'outbrain.com'
p2686
(dp2687
g1224
F0.031
sssg601
(dp2688
S'yahoo.com'
p2689
(dp2690
g1224
F0.008
ssg1255
(dp2691
g1224
F0.0935
ssS'youtube.com'
p2692
(dp2693
g1224
F0.036000000000000004
ssS'google.com'
p2694
(dp2695
g1224
F0.067
ssS'live.com'
p2696
(dp2697
g1224
F0.019
ssg621
(dp2698
g1224
F0.0295
ssS'amazon.com'
p2699
g2384
sS'facebook.com'
p2700
(dp2701
g1224
F0.03
ssg85
g1456
sS'amazon.co.uk'
p2702
(dp2703
g1224
F0.012
sssg605
(dp2704
S'yahoo.com'
p2705
(dp2706
g1224
F0.075
ssS'bing.com'
p2707
(dp2708
g1224
F0.013999999999999999
ssg881
(dp2709
g1224
F0.0135
ssS'youtube.com'
p2710
(dp2711
g1224
F0.013000000000000001
ssS'google.com'
p2712
(dp2713
g1224
F0.172
ssg629
(dp2714
g1224
F0.022
ssg2332
g1787
sS'amazon.com'
p2715
g2392
sS'facebook.com'
p2716
(dp2717
g1224
F0.068
ssg825
(dp2718
g1224
F0.027999999999999997
ssg1802
(dp2719
g1224
F0.064
ssg921
(dp2720
g1224
F0.022000000000000002
sssg609
(dp2721
g321
g2039
sS'yahoo.com'
p2722
(dp2723
g1224
F0.022000000000000002
ssg937
(dp2724
g1224
F0.021
ssg797
(dp2725
g1224
F0.016
ssS'google.com'
p2726
(dp2727
g1224
F0.125
ssg361
g2114
sS'walmart.com'
p2728
g1820
sS'amazon.com'
p2729
g2399
sS'facebook.com'
p2730
(dp2731
g1224
F0.023
ssS'ebay.com'
p2732
(dp2733
g1224
F0.061
sssg613
(dp2734
g321
g2051
sS'ebay.co.uk'
p2735
g2071
sS'slickdeals.net'
p2736
g1238
sS'youtube.com'
p2737
(dp2738
g1224
F0.025
ssS'live.com'
p2739
(dp2740
g1224
F0.011000000000000001
ssg621
(dp2741
g1224
F0.043
ssg937
(dp2742
g1224
F0.006
ssS'bing.com'
p2743
(dp2744
g1224
F0.01
ssg2396
(dp2745
g1224
F0.021
ssg609
g2733
sS'facebook.com'
p2746
(dp2747
g1224
F0.042
ssg173
g1719
sg1244
g1822
sg1246
g2386
sg1483
(dp2748
g1224
F0.027000000000000003
ssg1298
(dp2749
g1224
F0.018
ssg1157
(dp2750
g1224
F0.013999999999999999
ssg1304
(dp2751
g1224
F0.109
ssg877
(dp2752
g1224
F0.084
ssg1966
(dp2753
g1224
F0.009000000000000001
ssg893
(dp2754
g1224
F0.031
ssg305
g2011
ssg617
(dp2755
g2098
g2682
sg321
g2043
sg2735
g2061
sg2320
g1240
sg1653
g1262
sg333
g2087
sS'youtube.com'
p2756
(dp2757
g1224
F0.027999999999999997
ssg1237
g2740
sg621
(dp2758
g1224
F0.02
ssg361
g2118
sg601
g2697
sg69
g1425
sg901
(dp2759
g1224
F0.018000000000000002
ssg937
(dp2760
g1224
F0.024
ssg381
g2165
sg677
(dp2761
g1224
F0.03
ssS'bing.com'
p2762
(dp2763
g1224
F0.0135
ssg2396
(dp2764
g1224
F0.009000000000000001
ssg705
(dp2765
g1224
F0.018000000000000002
ssg397
g2184
sg125
g1594
sg237
g1871
sg1293
(dp2766
g1224
F0.047
ssg509
g2472
sg433
g2235
sg1263
g2374
sg1306
(dp2767
g1224
F0.008
ssg1244
g1816
sg1246
g2388
sg1157
(dp2768
g1224
F0.013000000000000001
ssg225
g1841
sg1296
(dp2769
g1224
F0.013000000000000001
ssg1298
(dp2770
g1224
F0.0115
ssS'bbc.co.uk'
p2771
g2493
sg1161
(dp2772
g1224
F0.015
ssg1255
(dp2773
g1224
F0.009000000000000001
ssS'google.com'
p2774
(dp2775
g1224
F0.086
ssg877
(dp2776
g1224
F0.021
ssg1185
(dp2777
g1224
F0.015
ssg285
g1957
sg845
(dp2778
g1224
F0.012
ssg893
(dp2779
g1224
F0.011000000000000001
ssg2064
(dp2780
g1224
F0.009000000000000001
sssg621
(dp2781
S'yahoo.com'
p2782
(dp2783
g1224
F0.011000000000000001
ssg601
g2698
sS'google.es'
p2784
(dp2785
g1224
F0.19699999999999998
ssS'youtube.com'
p2786
(dp2787
g1224
F0.025
ssS'google.com'
p2788
(dp2789
g1224
F0.065
ssS'live.com'
p2790
g2758
sS'paypal.com'
p2791
(dp2792
g1224
F0.039
ssg305
g2004
sS'facebook.com'
p2793
(dp2794
g1224
F0.024
ssS'ebay.com'
p2795
g2741
ssg625
(dp2796
g1255
(dp2797
g1224
F0.005
sssg629
(dp2798
S'yahoo.com'
p2799
(dp2800
g1224
F0.035
ssg245
g1889
sg605
g2714
sg1209
(dp2801
g1224
F0.1205
ssS'youtube.com'
p2802
(dp2803
g1224
F0.019
ssS'google.com'
p2804
(dp2805
g1224
F0.106
ssg733
(dp2806
g1224
F0.018000000000000002
ssg701
(dp2807
g1224
F0.028500000000000004
ssS'amazon.com'
p2808
g2389
sS'facebook.com'
p2809
(dp2810
g1224
F0.043
ssg825
(dp2811
g1224
F0.018000000000000002
ssg921
(dp2812
g1224
F0.07100000000000001
sssg633
(dp2813
S'nicovideo.jp'
p2814
(dp2815
g1224
F0.021
ssS'fc2.com'
p2816
(dp2817
g1224
F0.032
ssg261
g1916
sS'yahoo.co.jp'
p2818
(dp2819
g1224
F0.064
ssS'youtube.com'
p2820
(dp2821
g1224
F0.022000000000000002
ssS'google.com'
p2822
(dp2823
g1224
F0.019
ssg2266
(dp2824
g1224
F0.08549999999999999
ssS'twitter.com'
p2825
(dp2826
g1224
F0.015
ssg1053
(dp2827
g1224
F0.038
ssS'google.co.jp'
p2828
g2265
sS'amazon.co.jp'
p2829
(dp2830
g1224
F0.021
ssg749
(dp2831
g1224
F0.008
sssg637
(dp2832
g437
g2252
ssg641
(dp2833
g669
(dp2834
g1224
F0.009000000000000001
ssg185
g1742
ssg645
(dp2835
g1093
(dp2836
g1224
F0.018000000000000002
ssS'betrad.com'
p2837
g1436
sg1434
(dp2838
g1224
F0.304
ssS'rubiconproject.com'
p2839
(dp2840
g1224
F0.013999999999999999
ssS'youtube.com'
p2841
(dp2842
g1224
F0.013000000000000001
ssg353
g2104
sg133
g1618
sS'gstatic.com'
p2843
(dp2844
g1224
F0.01
ssg57
g1394
sg425
g2221
ssg649
(dp2845
S'yahoo.com'
p2846
(dp2847
g1224
F0.038
ssS'bing.com'
p2848
(dp2849
g1224
F0.013000000000000001
ssS'youtube.com'
p2850
(dp2851
g1224
F0.018000000000000002
ssS'google.com'
p2852
(dp2853
g1224
F0.182
ssg1664
g2335
sS'twitter.com'
p2854
(dp2855
g1224
F0.017
ssS't.co'
p2856
g1674
sg2332
g1801
sS'facebook.com'
p2857
(dp2858
g1224
F0.054000000000000006
ssS'outbrain.com'
p2859
(dp2860
g1224
F0.019
sssg653
(dp2861
g1306
(dp2862
g1224
F0.006999999999999999
sssg657
(dp2863
g397
g2192
ssg661
(dp2864
g105
g1551
sg1311
g1639
ssg665
(dp2865
g1989
(dp2866
g1224
F0.023
ssg2587
g1986
ssg669
(dp2867
S'alibaba.com'
p2868
g1749
sg65
g1416
sS'youtube.com'
p2869
(dp2870
g1224
F0.021
ssS'google.com'
p2871
(dp2872
g1224
F0.017
ssg169
g1716
sS'adnetworkperformance.com'
p2873
g2834
sg49
g1357
sg217
g1825
sS'popads.net'
p2874
g1782
sg185
g1747
sS'facebook.com'
p2875
(dp2876
g1224
F0.024
sssg673
(dp2877
g381
g2172
ssg677
(dp2878
g1288
g2466
sS'yahoo.com'
p2879
(dp2880
g1224
F0.02
ssS'bing.com'
p2881
(dp2882
g1224
F0.012
ssS'google.es'
p2883
(dp2884
g1224
F0.01
ssS'youtube.com'
p2885
(dp2886
g1224
F0.043
ssS'google.com'
p2887
(dp2888
g1224
F0.05
ssS'live.com'
p2889
g2761
sg69
g1418
sS'amazon.com'
p2890
g2393
sS'facebook.com'
p2891
(dp2892
g1224
F0.05
sssg681
(dp2893
g585
g2634
sg1105
(dp2894
g1224
F0.013999999999999999
ssg29
g1279
sg949
(dp2895
g1224
F0.018000000000000002
ssg1177
(dp2896
g1224
F0.12300000000000001
ssg277
g1941
sg917
(dp2897
g1224
F0.027000000000000003
ssg821
(dp2898
g1224
F0.01
ssg1065
(dp2899
g1224
F0.062
ssg873
(dp2900
g1224
F0.026000000000000002
sssg685
(dp2901
g1053
(dp2902
g1224
F0.027000000000000003
sssg689
(dp2903
S'weibo.com'
p2904
(dp2905
g1224
F0.038
ssS'baidu.com'
p2906
(dp2907
g1224
F0.35200000000000004
ssS'sohu.com'
p2908
(dp2909
g1224
F0.11699999999999999
ssS'taobao.com'
p2910
g2354
sS'360.cn'
p2911
g1367
sS'qq.com'
p2912
(dp2913
g1224
F0.063
ssS'sina.com.cn'
p2914
(dp2915
g1224
F0.03
ssg1386
g2664
sg1388
g1489
sS'hao123.com'
p2916
g2018
ssg693
(dp2917
S'yahoo.com'
p2918
(dp2919
g1224
F0.017
ssS'doubleclick.net'
p2920
(dp2921
g1224
F0.018000000000000002
ssS'google.co.id'
p2922
g2580
sS'youtube.com'
p2923
(dp2924
g1224
F0.026000000000000002
ssS'google.com'
p2925
(dp2926
g1224
F0.073
ssg2587
g1978
sg157
g1686
sg185
g1739
sS'facebook.com'
p2927
(dp2928
g1224
F0.03
ssg1989
(dp2929
g1224
F0.026500000000000003
sssg697
(dp2930
S'yahoo.com'
p2931
(dp2932
g1224
F0.02
ssg1678
g2503
sS'youtube.com'
p2933
(dp2934
g1224
F0.017
ssS'ebay.com'
p2935
g2745
sS'live.com'
p2936
g2764
sg893
(dp2937
g1224
F0.0165
ssg2064
(dp2938
g1224
F0.008
ssS'amazon.com'
p2939
g2397
sS'facebook.com'
p2940
(dp2941
g1224
F0.076
ssS'google.com'
p2942
(dp2943
g1224
F0.265
sssg701
(dp2944
S'yahoo.com'
p2945
(dp2946
g1224
F0.016
ssS'bing.com'
p2947
(dp2948
g1224
F0.011000000000000001
ssS'twitter.com'
p2949
(dp2950
g1224
F0.01
ssS'reddit.com'
p2951
(dp2952
g1224
F0.019
ssS'youtube.com'
p2953
(dp2954
g1224
F0.021
ssS'google.com'
p2955
(dp2956
g1224
F0.205
ssg629
g2807
sS'google.co.uk'
p2957
(dp2958
g1224
F0.057999999999999996
ssS't.co'
p2959
g1675
sS'facebook.com'
p2960
(dp2961
g1224
F0.084
sssg705
(dp2962
S'yahoo.com'
p2963
(dp2964
g1224
F0.023
ssg2735
g2059
sg2771
g2491
sS'youtube.com'
p2965
(dp2966
g1224
F0.035
ssS'google.com'
p2967
(dp2968
g1224
F0.07
ssS'live.com'
p2969
g2765
sS'bing.com'
p2970
(dp2971
g1224
F0.016
ssg2064
(dp2972
g1224
F0.08199999999999999
ssS'amazon.com'
p2973
g2398
sg601
g2703
sS'facebook.com'
p2974
(dp2975
g1224
F0.04
sssg709
(dp2976
g1650
(dp2977
g1224
F0.06
ssS'fc2.com'
p2978
(dp2979
g1224
F0.017
ssS'yahoo.co.jp'
p2980
(dp2981
g1224
F0.06
ssS'youtube.com'
p2982
(dp2983
g1224
F0.038
ssS'google.com'
p2984
(dp2985
g1224
F0.037000000000000005
ssS'amazon.co.jp'
p2986
(dp2987
g1224
F0.025
ssg1915
g2824
sS'twitter.com'
p2988
(dp2989
g1224
F0.044000000000000004
ssS'google.co.jp'
p2990
g2267
sg829
(dp2991
g1224
F0.018000000000000002
ssg749
(dp2992
g1224
F0.006
sssg713
(dp2993
g1597
(dp2994
g1224
F0.016
sssg717
(dp2995
g557
g2586
sg753
(dp2996
g1224
F0.016
sssg721
(dp2997
g69
g1426
ssg725
(dp2998
g1650
(dp2999
g1224
F0.057
ssg1653
g1266
sg1274
(dp3000
g1224
F0.0275
ssg1915
g2826
sS'linkedin.com'
p3001
(dp3002
g1224
F0.009000000000000001
ssg1666
g1574
sg557
g2589
sS'reddit.com'
p3003
(dp3004
g1224
F0.020000000000000004
ssg2266
g2989
sg701
g2950
sg1783
g1669
sg733
(dp3005
g1224
F0.011000000000000001
ssg1293
(dp3006
g1224
F0.053
ssg437
g2251
sg753
(dp3007
g1224
F0.009000000000000001
ssg925
(dp3008
g1224
F0.01
ssg1288
g2475
sg1209
(dp3009
g1224
F0.012
ssg1290
(dp3010
g1224
F0.012
ssg1664
g2330
sg1851
g1760
sg1306
(dp3011
g1224
F0.006999999999999999
ssg1255
(dp3012
g1224
F0.008
ssg649
g2855
sg229
g1853
sg1296
(dp3013
g1224
F0.009000000000000001
ssS'yahoo.com'
p3014
(dp3015
g1224
F0.009000000000000001
ssg2771
g2488
sg1678
g2512
sS'instagram.com'
p3016
g2526
sg529
g2543
sg1304
(dp3017
g1224
F0.061
ssg2216
(dp3018
g1224
F0.017
ssg845
(dp3019
g1224
F0.015
ssg2064
(dp3020
g1224
F0.009000000000000001
ssg441
g2269
sg921
(dp3021
g1224
F0.017
sssg729
(dp3022
S'yahoo.com'
p3023
(dp3024
g1224
F0.019
ssS'orf.at'
p3025
g1899
sS'youtube.com'
p3026
(dp3027
g1224
F0.015
ssS'google.com'
p3028
(dp3029
g1224
F0.03
ssg45
g1340
sg561
g2597
sS'facebook.com'
p3030
(dp3031
g1224
F0.077
ssS'google.de'
p3032
(dp3033
g1224
F0.1
ssS'google.at'
p3034
g1628
sg501
g2436
ssg733
(dp3035
S'yahoo.com'
p3036
(dp3037
g1224
F0.087
ssg245
g1891
sS'reddit.com'
p3038
(dp3039
g1224
F0.025
ssS'youtube.com'
p3040
(dp3041
g1224
F0.009000000000000001
ssS'google.com'
p3042
(dp3043
g1224
F0.262
ssg1666
g1579
sS'drudgereport.com'
p3044
g2806
sS'twitter.com'
p3045
g3005
sS't.co'
p3046
g1667
sS'facebook.com'
p3047
(dp3048
g1224
F0.095
sssg737
(dp3049
g1161
(dp3050
g1224
F0.022000000000000002
ssg729
g3033
sg2212
g1287
sg1274
(dp3051
g1224
F0.024
ssg1226
g1349
sg561
g2605
sg401
g2205
sg1453
g1523
sS'bing.com'
p3052
(dp3053
g1224
F0.009000000000000001
ssg289
g1971
sS'facebook.com'
p3054
(dp3055
g1224
F0.027000000000000003
ssg1354
(dp3056
g1224
F0.11900000000000001
ssg1460
(dp3057
g1224
F0.198
ssg785
(dp3058
g1224
F0.128
ssS'web.de'
p3059
g1928
sS'ebay.de'
p3060
(dp3061
g1224
F0.08650000000000001
ssg1644
g1470
sg1678
g2510
sg1300
g1909
sS'google.com'
p3062
(dp3063
g1224
F0.022000000000000002
ssg1474
(dp3064
g1224
F0.146
ssg577
g2628
sg501
g2444
ssg741
(dp3065
S'yahoo.com'
p3066
(dp3067
g1224
F0.02
ssS'olx.co.id'
p3068
(dp3069
g1224
F0.012
ssg693
g2929
sg557
g2592
sS'youtube.com'
p3070
(dp3071
g1224
F0.036000000000000004
ssS'google.com'
p3072
(dp3073
g1224
F0.096
ssg665
g2866
sg2587
g1990
sS'facebook.com'
p3074
(dp3075
g1224
F0.057999999999999996
ssg753
(dp3076
g1224
F0.018500000000000003
sssg745
(dp3077
g1471
(dp3078
g1224
F0.013000000000000001
sssg749
(dp3079
S'fc2.com'
p3080
(dp3081
g1224
F0.006999999999999999
ssg709
g2992
sS'yahoo.co.jp'
p3082
(dp3083
g1224
F0.071
ssS'youtube.com'
p3084
(dp3085
g1224
F0.01
ssS'google.com'
p3086
(dp3087
g1224
F0.013999999999999999
ssg2262
(dp3088
g1224
F0.3295
ssS'amazon.co.jp'
p3089
(dp3090
g1224
F0.017
ssg633
g2831
sg1053
(dp3091
g1224
F0.18
ssS'google.co.jp'
p3092
g2273
ssg753
(dp3093
S'yahoo.com'
p3094
(dp3095
g1224
F0.012
ssg933
(dp3096
g1224
F0.011000000000000001
ssg557
g2593
sS'youtube.com'
p3097
(dp3098
g1224
F0.043
ssS'google.com'
p3099
(dp3100
g1224
F0.10800000000000001
ssS'detik.com'
p3101
g2996
sg293
g1991
sS'twitter.com'
p3102
g3007
sS'facebook.com'
p3103
(dp3104
g1224
F0.07
ssg1989
g3076
ssg757
(dp3105
g1361
(dp3106
g1224
F0.027
ssg1368
(dp3107
g1224
F0.20650000000000002
ssg1370
(dp3108
g1224
F0.064
ssS'taobao.com'
p3109
g2348
sS'360.cn'
p3110
g1360
sS'qq.com'
p3111
(dp3112
g1224
F0.091
ssS'sina.com.cn'
p3113
(dp3114
g1224
F0.046
ssg1386
g2663
sg1388
g1488
sg1837
g2014
ssg761
(dp3115
g597
g2674
sg321
g2034
sg2735
g2054
sg605
g2706
sg1244
g1806
sg1685
g2919
sg333
g2076
sS'wikipedia.org'
p3116
g1299
sg1274
(dp3117
g1224
F0.020000000000000004
ssS'ebay.com'
p3118
g2749
sS'live.com'
p3119
g2770
sg621
g2783
sg41
g1320
sg629
g2800
sg1277
g2417
sg937
(dp3120
g1224
F0.046
ssg61
g1398
sg601
g2690
sg781
(dp3121
g1224
F0.063
ssg369
g2136
sg2320
g1230
sg381
g2157
sS'linkedin.com'
p3122
(dp3123
g1224
F0.005
ssg677
g2880
sg585
g2632
sS'bing.com'
p3124
(dp3125
g1224
F0.0105
ssg2396
g2932
sg1666
g1562
sg557
g2579
sg705
g2964
sg1157
(dp3126
g1224
F0.031
ssg2587
g1975
sg1668
g3015
sg1783
g1648
sg1296
(dp3127
g1224
F0.016
ssg729
g3024
sg733
g3037
sg901
(dp3128
g1224
F0.015
ssg1293
(dp3129
g1224
F0.0415
ssg1989
g3067
sg165
g1698
sg753
g3095
sg845
(dp3130
g1224
F0.013000000000000001
ssg1033
(dp3131
g1224
F0.023
ssg1209
(dp3132
g1224
F0.034
ssg433
g2226
sg701
g2946
sg1664
g2319
sg589
g2655
sg1263
g2366
sg2332
g1786
sg1306
(dp3133
g1224
F0.011000000000000001
ssg1246
g2405
sg817
(dp3134
g1224
F0.013000000000000001
ssg649
g2847
sg825
(dp3135
g1224
F0.032
ssg609
g2723
sg397
g2180
sg237
g1861
sg1288
g2465
sg245
g1880
sg2771
g2484
sg1678
g2502
sg361
g2108
sg1656
g2519
sg529
g2533
sg1304
(dp3136
g1224
F0.058499999999999996
ssg877
(dp3137
g1224
F0.021
ssg1185
(dp3138
g1224
F0.019
ssg1966
(dp3139
g1224
F0.026000000000000002
ssg1255
(dp3140
g1224
F0.008
ssg893
(dp3141
g1224
F0.016
ssg2064
(dp3142
g1224
F0.01
ssg1213
(dp3143
g1224
F0.021
ssg1311
g1627
sg1802
(dp3144
g1224
F0.006999999999999999
ssg921
(dp3145
g1224
F0.019
sssg765
(dp3146
g817
(dp3147
g1224
F0.011000000000000001
sssg769
(dp3148
g817
(dp3149
g1224
F0.028999999999999998
sssg773
(dp3150
g449
g2287
ssg777
(dp3151
g449
g2289
ssg781
(dp3152
g41
g1332
sS'yahoo.com'
p3153
g3121
sS'bing.com'
p3154
(dp3155
g1224
F0.009000000000000001
ssS'youtube.com'
p3156
(dp3157
g1224
F0.018000000000000002
ssS'google.com'
p3158
(dp3159
g1224
F0.071
ssg589
g2660
sS'google.com.hk'
p3160
g2425
sg61
g1411
sg985
(dp3161
g1224
F0.006999999999999999
ssS'ptt.cc'
p3162
g2381
sS'facebook.com'
p3163
(dp3164
g1224
F0.067
sssg785
(dp3165
g1483
(dp3166
g1224
F0.059000000000000004
ssS'bing.com'
p3167
(dp3168
g1224
F0.045
ssS'youtube.com'
p3169
(dp3170
g1224
F0.022000000000000002
ssS'google.com'
p3171
(dp3172
g1224
F0.019
ssg1516
g1929
sg745
g3078
sS'facebook.com'
p3173
(dp3174
g1224
F0.057
ssS'gmx.net'
p3175
g2623
sg1469
g3058
sS'amazon.de'
p3176
g1472
ssg789
(dp3177
g845
(dp3178
g1224
F0.012
sssg793
(dp3179
g473
g2342
ssg797
(dp3180
g609
g2725
ssg801
(dp3181
g165
g1692
ssg805
(dp3182
g133
g1615
ssg809
(dp3183
g177
g1726
ssg813
(dp3184
g1009
(dp3185
g1224
F0.052000000000000005
sssg817
(dp3186
S'google.com.tw'
p3187
g1333
sS'yahoo.com'
p3188
g3134
sg765
g3147
sg769
g3149
sS'youtube.com'
p3189
(dp3190
g1224
F0.091
ssS'google.com'
p3191
(dp3192
g1224
F0.027000000000000003
ssg589
g2659
sg61
g1412
sS'facebook.com'
p3193
(dp3194
g1224
F0.207
ssg1193
(dp3195
g1224
F0.013999999999999999
sssg821
(dp3196
g681
g2898
ssg825
(dp3197
S'yahoo.com'
p3198
g3135
sS'bing.com'
p3199
(dp3200
g1224
F0.01
ssS'foxnews.com'
p3201
g2718
sg1209
(dp3202
g1224
F0.029
ssg181
g1735
sS'google.com'
p3203
(dp3204
g1224
F0.11199999999999999
ssg369
g2151
sS'drudgereport.com'
p3205
g2811
sS'amazon.com'
p3206
g2404
sS'facebook.com'
p3207
(dp3208
g1224
F0.038
sssg829
(dp3209
g2266
g2991
ssg833
(dp3210
g473
g2345
sg1607
g1778
ssg837
(dp3211
g133
g1611
sg1393
g2840
ssg841
(dp3212
S'weibo.com'
p3213
(dp3214
g1224
F0.037000000000000005
ssS'baidu.com'
p3215
(dp3216
g1224
F0.37799999999999995
ssS'sohu.com'
p3217
(dp3218
g1224
F0.11900000000000001
ssS'taobao.com'
p3219
g2352
sS'360.cn'
p3220
g1363
sS'qq.com'
p3221
(dp3222
g1224
F0.057999999999999996
ssS'sina.com.cn'
p3223
(dp3224
g1224
F0.03
ssS'soso.com'
p3225
g2670
sg1388
g1497
sS'hao123.com'
p3226
g2028
ssg845
(dp3227
S'yahoo.com'
p3228
g3130
sg25
g1254
sS'youtube.com'
p3229
(dp3230
g1224
F0.024
ssS'google.com'
p3231
(dp3232
g1224
F0.078
ssS'live.com'
p3233
g2778
sg789
g3178
sg1263
g2364
sS'twitter.com'
p3234
g3019
sS'facebook.com'
p3235
(dp3236
g1224
F0.086
ssg1296
(dp3237
g1224
F0.09700000000000002
sssg849
(dp3238
S'gamefactory.jp'
p3239
g2339
sS'yahoo.co.jp'
p3240
(dp3241
g1224
F0.043
ssS'google.com'
p3242
(dp3243
g1224
F0.024
ssS'tsite.jp'
p3244
(dp3245
g1224
F0.025
ssg449
g2286
sg1607
g1770
sS'google.co.jp'
p3246
g2276
sg569
g2612
sg1057
(dp3247
g1224
F0.141
ssS'media-ad.jp'
p3248
g1993
ssg853
(dp3249
g305
g1997
ssg857
(dp3250
g1053
(dp3251
g1224
F0.01
sssg861
(dp3252
g365
g2126
ssg865
(dp3253
g677
g2884
sS'yahoo.com'
p3254
g3140
sg625
g2797
sg601
g2691
sg573
g2614
sg1653
g1256
sS'wikipedia.org'
p3255
g1302
sS'youtube.com'
p3256
(dp3257
g1224
F0.042
ssS'google.com'
p3258
(dp3259
g1224
F0.049
ssS'live.com'
p3260
g2773
sg621
g2785
sg925
(dp3261
g1224
F0.008
ssg1263
g2368
sS'twitter.com'
p3262
g3012
sg369
g2142
sS'facebook.com'
p3263
(dp3264
g1224
F0.031
ssg237
g1865
ssg869
(dp3265
g69
g1421
ssg873
(dp3266
g681
g2900
sg585
g2643
ssg877
(dp3267
S'yahoo.com'
p3268
g3137
sS'bing.com'
p3269
(dp3270
g1224
F0.021
ssS'google.ca'
p3271
(dp3272
g1224
F0.153
ssS'youtube.com'
p3273
(dp3274
g1224
F0.031
ssS'google.com'
p3275
(dp3276
g1224
F0.122
ssS'live.com'
p3277
g2776
sS'paypal.com'
p3278
(dp3279
g1224
F0.02
ssg901
(dp3280
g1224
F0.025
ssS'facebook.com'
p3281
(dp3282
g1224
F0.035
ssS'ebay.com'
p3283
g2752
ssg881
(dp3284
S'yahoo.com'
p3285
g3139
sS'bing.com'
p3286
(dp3287
g1224
F0.01
ssg605
g2709
sS'youtube.com'
p3288
(dp3289
g1224
F0.015
ssS'google.com'
p3290
(dp3291
g1224
F0.129
ssg289
g1967
sg513
g2481
sS'amazon.com'
p3292
g2411
sS'facebook.com'
p3293
(dp3294
g1224
F0.081
ssg381
g2166
sS'ebay.com'
p3295
g2753
ssg885
(dp3296
g133
g1624
sg1434
(dp3297
g1224
F0.038
sssg889
(dp3298
g497
g2428
sg1359
g3112
sg1384
(dp3299
g1224
F0.0445
ssg1364
g1536
sg1366
g2913
sg1368
(dp3300
g1224
F0.10300000000000001
ssS'google.com'
p3301
(dp3302
g1224
F0.037000000000000005
ssg1492
g1950
sg477
g2358
sg1165
(dp3303
g1224
F0.061
ssg1386
g2669
sS'360.cn'
p3304
g1377
sg1495
g2557
sg841
g3222
sg1498
g1834
sg1121
(dp3305
g1224
F0.011000000000000001
ssg77
g1447
sS'weibo.com'
p3306
(dp3307
g1224
F0.0325
ssg953
(dp3308
g1224
F0.017
ssg1380
g2458
sS'hao123.com'
p3309
g2022
ssg893
(dp3310
S'yahoo.com'
p3311
g3141
sg2735
g2063
sg877
g3279
sg697
g2937
sS'youtube.com'
p3312
(dp3313
g1224
F0.012
ssg1237
g2754
sg1840
g2779
sg621
g2792
sg1049
(dp3314
g1224
F0.006999999999999999
ssg149
g1681
sS'amazon.com'
p3315
g2413
sS'facebook.com'
p3316
(dp3317
g1224
F0.036000000000000004
ssS'google.com'
p3318
(dp3319
g1224
F0.135
sssg897
(dp3320
g449
g2295
ssg901
(dp3321
S'yahoo.com'
p3322
g3128
sS'bing.com'
p3323
(dp3324
g1224
F0.009000000000000001
ssg1306
(dp3325
g1224
F0.08900000000000001
ssS'youtube.com'
p3326
(dp3327
g1224
F0.037000000000000005
ssS'google.com'
p3328
(dp3329
g1224
F0.083
ssS'live.com'
p3330
g2759
sg877
g3280
sg1185
(dp3331
g1224
F0.027
ssS'amazon.com'
p3332
g2391
sS'facebook.com'
p3333
(dp3334
g1224
F0.04
sssg905
(dp3335
g369
g2150
ssg909
(dp3336
g1656
g2530
sg305
g2009
ssg913
(dp3337
g473
g2344
sg1607
g1776
ssg917
(dp3338
g2098
g2687
sS'yahoo.com'
p3339
g3144
sg681
g2897
sg605
g2719
sg333
g2094
sS'google.com'
p3340
(dp3341
g1224
F0.021
ssg469
g2336
sg561
g2608
sg1263
g2378
sS'cnn.com'
p3342
g1803
sg413
g2214
sS'facebook.com'
p3343
(dp3344
g1224
F0.021
ssg1213
(dp3345
g1224
F0.0115
ssg649
g2860
sg1081
(dp3346
g1224
F0.0755
sssg921
(dp3347
S'yahoo.com'
p3348
g3145
sS'bing.com'
p3349
(dp3350
g1224
F0.012
ssS'foxnews.com'
p3351
g2720
sS'reddit.com'
p3352
(dp3353
g1224
F0.017
ssS'youtube.com'
p3354
(dp3355
g1224
F0.019
ssS'google.com'
p3356
(dp3357
g1224
F0.147
ssg629
g2812
sS'twitter.com'
p3358
g3021
sS't.co'
p3359
g1676
sS'facebook.com'
p3360
(dp3361
g1224
F0.085
sssg925
(dp3362
S'google.co.in'
p3363
g2633
sg1137
(dp3364
g1224
F0.005
ssg389
g2176
sg557
g2577
sS'youtube.com'
p3365
(dp3366
g1224
F0.053
ssS'google.com'
p3367
(dp3368
g1224
F0.161
ssS'google.es'
p3369
g3261
sg61
g1407
sS'twitter.com'
p3370
g3008
sg465
g2316
sS'facebook.com'
p3371
(dp3372
g1224
F0.05
sssg929
(dp3373
S'fc2.com'
p3374
(dp3375
g1224
F0.026000000000000002
ssg1290
(dp3376
g1224
F0.030500000000000003
ssS'youtube.com'
p3377
(dp3378
g1224
F0.065
ssS'google.com'
p3379
(dp3380
g1224
F0.016
ssg2266
g2977
sg1915
g2815
sg1668
g2999
sg141
g1651
sg441
g2259
sg997
(dp3381
g1224
F0.013999999999999999
ssg265
g1918
sg2216
(dp3382
g1224
F0.0195
sssg933
(dp3383
g1989
g3069
sg2587
g1977
sg753
g3096
ssg937
(dp3384
S'yahoo.com'
p3385
g3120
sS'bing.com'
p3386
(dp3387
g1224
F0.008
ssS'slickdeals.net'
p3388
g1250
sg433
g2230
sg1033
(dp3389
g1224
F0.009000000000000001
ssg609
g2724
sS'google.com'
p3390
(dp3391
g1224
F0.327
ssS'live.com'
p3392
g2760
sS'youtube.com'
p3393
(dp3394
g1224
F0.006999999999999999
ssS'amazon.com'
p3395
g2390
sS'facebook.com'
p3396
(dp3397
g1224
F0.051
ssS'ebay.com'
p3398
g2742
ssg941
(dp3399
g1277
g2418
sg1359
g3114
sg1361
(dp3400
g1224
F0.084
ssg1366
g2915
sg1368
(dp3401
g1224
F0.09799999999999999
ssS'google.com'
p3402
(dp3403
g1224
F0.064
ssg1165
(dp3404
g1224
F0.018000000000000002
ssg477
g2353
sg1492
g1944
sS'360.cn'
p3405
g1385
sg1376
g3299
sg1495
g2559
sg841
g3224
sg1364
g1538
sS'cntv.cn'
p3406
g1835
sS'sohu.com'
p3407
(dp3408
g1224
F0.0225
ssg1380
g2460
sS'hao123.com'
p3409
g2024
ssg945
(dp3410
g1483
(dp3411
g1224
F0.018000000000000002
sssg949
(dp3412
g1161
(dp3413
g1224
F0.013000000000000001
ssg2320
g1236
sg1653
g1258
sS'wikipedia.org'
p3414
g1275
sg41
g1324
sg1226
g1344
sg61
g1404
sg729
g3027
sg1453
g1513
sg105
g1547
sg1666
g1570
sg125
g1590
sg1783
g1659
sg165
g1694
sg169
g1708
sg1851
g1756
sg2332
g1791
sg1244
g1812
sg229
g1847
sg237
g1867
sg245
g1884
sg1300
g1902
sg289
g1965
sg2587
g1982
sg441
g2261
sg305
g1999
sg1311
g1632
sg2735
g2058
sg1434
(dp3415
g1224
F0.024
ssg185
g1741
sg437
g2245
sg1837
g2026
sg1277
g2430
sg1664
g2324
sg585
g2637
sg1263
g2370
sS'amazon.com'
p3416
g2385
sg649
g2851
sg1288
g2469
sg2771
g2490
sg1678
g2514
sg1656
g2522
sg529
g2538
sg2064
(dp3417
g1224
F0.04
ssg1552
g2620
sg589
g2651
sg2098
g2679
sg601
g2693
sg605
g2711
sg1237
g2738
sg1840
g2757
sg621
g2787
sg629
g2803
sg1915
g2821
sg1393
g2842
sg669
g2870
sg677
g2886
sg681
g2895
sg2396
g2934
sg557
g2583
sg705
g2966
sg2266
g2983
sS'twitter.com'
p3418
g3000
sg733
g3041
sg781
g3157
sg1989
g3071
sg749
g3085
sg753
g3098
sg925
g3366
sg1298
g3117
sg1290
(dp3419
g1224
F0.027000000000000003
ssg701
g2954
sg1471
g3170
sg1185
(dp3420
g1224
F0.026000000000000002
ssg737
g3051
sg817
g3190
sg1644
g1463
sg845
g3230
sg1255
g3257
sg877
g3274
sg1966
g3289
sg893
g3313
sg501
g2439
sg921
g3355
sg1650
g3378
sg937
g3394
sg1685
g2924
sg1597
(dp3421
g1224
F0.013999999999999999
ssg901
g3327
sS'bing.com'
p3422
(dp3423
g1224
F0.023500000000000004
ssg1293
(dp3424
g1224
F0.0775
ssg1354
(dp3425
g1224
F0.022000000000000002
ssS'reddit.com'
p3426
(dp3427
g1224
F0.037
ssg1516
g1925
sg1483
(dp3428
g1224
F0.021
ssg1296
(dp3429
g1224
F0.075
ssg1157
(dp3430
g1224
F0.015
ssg1306
(dp3431
g1224
F0.047
ssg1304
(dp3432
g1224
F0.10750000000000001
ssg2216
(dp3433
g1224
F0.035
ssg1601
(dp3434
g1224
F0.013000000000000001
ssg1213
(dp3435
g1224
F0.019
sssg953
(dp3436
S'haosou.com'
p3437
g3108
sg1384
g3408
sg1366
g2909
sS'baidu.com'
p3438
(dp3439
g1224
F0.09300000000000001
ssS'360.com'
p3440
g1946
sg1832
g1371
sg1376
g3308
sS'xinhuanet.com'
p3441
g2554
sg841
g3218
sg1498
g1829
sg101
g1531
sg505
g2454
ssg957
(dp3442
g849
g3245
sg449
g2288
sS'yahoo.co.jp'
p3443
(dp3444
g1224
F0.16699999999999998
ssS'google.com'
p3445
(dp3446
g1224
F0.044000000000000004
ssS'pex.jp'
p3447
g2302
sS'amazon.co.jp'
p3448
(dp3449
g1224
F0.022000000000000002
ssg473
g2340
sS'rakuten.co.jp'
p3450
(dp3451
g1224
F0.022000000000000002
ssS'ecnavi.jp'
p3452
(dp3453
g1224
F0.013000000000000001
ssg1053
(dp3454
g1224
F0.314
ssS'google.co.jp'
p3455
g2263
sg749
g3088
ssg961
(dp3456
g1009
(dp3457
g1224
F0.048
ssg2262
g3451
sg1290
(dp3458
g1224
F0.061
ssS'youtube.com'
p3459
g3421
sS'google.com'
p3460
(dp3461
g1224
F0.034
ssg177
g1725
sg2216
(dp3462
g1224
F0.044000000000000004
ssg713
g2994
sg125
g1598
sg549
g2570
sg441
g2275
sg1205
(dp3463
g1224
F0.10849999999999999
ssS'kakaku.com'
p3464
g2218
sS'facebook.com'
p3465
(dp3466
g1224
F0.01
ssg1772
g2309
ssg965
(dp3467
g585
g2639
ssg969
(dp3468
g473
g2341
ssg973
(dp3469
g365
g2127
ssg977
(dp3470
g133
g1620
sg1434
(dp3471
g1224
F0.027999999999999997
ssg1393
g2844
ssg981
(dp3472
g305
g2005
ssg985
(dp3473
g781
g3161
ssg989
(dp3474
g185
g1746
ssg993
(dp3475
g77
g1449
ssg997
(dp3476
g1650
g3381
ssg1001
(dp3477
g1298
g3123
sg585
g2644
sg1668
g3002
sg1304
(dp3478
g1224
F0.006999999999999999
sssg1005
(dp3479
g1453
g1505
sS'bing.com'
p3480
(dp3481
g1224
F0.034
ssS'web.de'
p3482
g1921
sS'google.com'
p3483
(dp3484
g1224
F0.019
ssg273
g1938
sg1474
(dp3485
g1224
F0.159
ssS'facebook.com'
p3486
(dp3487
g1224
F0.013999999999999999
ssS'google.de'
p3488
g3057
sS'amazon.de'
p3489
g1461
sg401
g2196
ssg1009
(dp3490
g8
g1223
sg473
g2338
sg2262
g3453
sS'yahoo.co.jp'
p3491
(dp3492
g1224
F0.051
ssS'google.com'
p3493
(dp3494
g1224
F0.024
ssS'pex.jp'
p3495
g2300
sS'amazon.co.jp'
p3496
(dp3497
g1224
F0.016
ssS'rakuten.co.jp'
p3498
g3457
sg549
g2563
sS'dreevee.com'
p3499
g1769
sg813
g3185
ssg1013
(dp3500
g2098
g2677
sS'nicovideo.jp'
p3501
g3376
sS'wikipedia.org'
p3502
g1291
sS'youtube.com'
p3503
g3419
sg2262
g3444
sS'rakuten.co.jp'
p3504
g3458
sg1915
g2819
sg1009
g3492
sg1772
g2304
sg2266
g2981
sg125
g1588
sS'twitter.com'
p3505
g3010
sg1053
(dp3506
g1224
F0.049
ssS'facebook.com'
p3507
(dp3508
g1224
F0.017
ssg749
g3083
sg449
g2297
sg177
g1723
sg849
g3241
sS'fc2.com'
p3509
(dp3510
g1224
F0.013999999999999999
ssS'google.com'
p3511
(dp3512
g1224
F0.026000000000000002
ssg2216
(dp3513
g1224
F0.065
ssg549
g2566
sg441
g2274
sg1601
(dp3514
g1224
F0.08
ssg1783
g1655
ssg1017
(dp3515
g2098
g2675
sg321
g2037
sg2735
g2056
sg605
g2708
sg1516
g1923
sg2212
g1281
sg1274
g3423
sg1237
g2744
sg1840
g2763
sg781
g3155
sg1226
g1339
sg1474
(dp3516
g1224
F0.016
ssg361
g2111
sg61
g1402
sg369
g2141
sg937
g3387
sg381
g2159
sg1644
g1478
sg677
g2882
sg105
g1544
sg1666
g1565
sg1033
(dp3517
g1224
F0.017
ssg705
g2971
sg1157
(dp3518
g1224
F0.012
ssg401
g2200
sg701
g2948
sg901
g3324
sg1293
(dp3519
g1224
F0.022
ssg429
g2223
sg1354
(dp3520
g1224
F0.016
ssg333
g2079
sg169
g1705
sg1209
(dp3521
g1224
F0.012
ssg433
g2228
sg1469
g3053
sg1471
g3168
sg589
g2649
sg1185
(dp3522
g1224
F0.018000000000000002
ssg1244
g1809
sg1246
g2395
sg649
g2849
sg825
g3200
sg1298
g3125
sg1483
(dp3523
g1224
F0.025
ssg2771
g2486
sg1300
g1907
sg1460
g3481
sS'google.com'
p3524
(dp3525
g1224
F0.031
ssg877
g3270
sg561
g2596
sg1966
g3287
sS'microsoft.com'
p3526
g1958
sg289
g1963
sg1552
g2625
sg1213
(dp3527
g1224
F0.009000000000000001
ssg1453
g1510
sg1311
g1637
sg501
g2435
sg921
g3350
ssg1021
(dp3528
S'haosou.com'
p3529
g3106
sg1384
g3400
sg1366
g2905
sS'baidu.com'
p3530
(dp3531
g1224
F0.087
ssS'google.com'
p3532
(dp3533
g1224
F0.039
ssg477
g2351
sg1492
g1952
sg1832
g1362
sg1376
g3307
sS'xinhuanet.com'
p3534
g2552
sg841
g3214
sS'cntv.cn'
p3535
g1827
sg77
g1441
sg1364
g1528
sg1380
g2451
sS'hao123.com'
p3536
g2017
ssg1025
(dp3537
g1552
g2618
ssg1029
(dp3538
g105
g1550
ssg1033
(dp3539
S'yahoo.com'
p3540
g3131
sS'bing.com'
p3541
g3517
sS'groupon.com'
p3542
g3389
sg433
g2231
sS'google.com'
p3543
(dp3544
g1224
F0.491
ssg1145
(dp3545
g1224
F0.005
ssg361
g2113
sS'amazon.com'
p3546
g2412
sS'facebook.com'
p3547
(dp3548
g1224
F0.009000000000000001
ssg373
g2153
ssg1037
(dp3549
g401
g2203
ssg1041
(dp3550
g1772
g2307
ssg1045
(dp3551
g1607
g1774
sg449
g2293
ssg1049
(dp3552
S'yahoo.com'
p3553
g3142
sg325
g2065
sg517
g2494
sg2396
g2938
sg1283
(dp3554
g1224
F0.006999999999999999
ssg2212
g1309
sS'youtube.com'
p3555
g3417
sS'google.com'
p3556
(dp3557
g1224
F0.037000000000000005
ssS'live.com'
p3558
g2780
sg1656
g2528
sg893
g3314
sS'twitter.com'
p3559
g3020
sg369
g2147
sg169
g1712
sS'facebook.com'
p3560
(dp3561
g1224
F0.034
ssg705
g2972
sg701
g2958
ssg1053
(dp3562
g685
g2902
sg857
g3251
sS'yahoo.co.jp'
p3563
g3506
sS'tsite.jp'
p3564
g3454
sS'amazon.co.jp'
p3565
(dp3566
g1224
F0.009000000000000001
ssg1915
g2827
sS'fc2.com'
p3567
(dp3568
g1224
F0.013999999999999999
ssS'google.co.jp'
p3569
g2270
sg1077
(dp3570
g1224
F0.021
ssg749
g3091
ssg1057
(dp3571
g849
g3247
ssg1061
(dp3572
g549
g2572
ssg1065
(dp3573
g1161
(dp3574
g1224
F0.024
ssg2320
g1249
sg1653
g1270
sS'wikipedia.org'
p3575
g1294
sg41
g1335
sg1226
g1351
sg61
g1414
sg69
g1429
sg729
g3031
sg1644
g1480
sg1453
g1521
sg105
g1555
sg1666
g1581
sg125
g1604
sg133
g1622
sg1783
g1673
sg165
g1701
sg169
g1715
sg1209
(dp3576
g1224
F0.04
ssg433
g2239
sg1851
g1763
sg2332
g1799
sg1244
g1819
sg229
g1857
sg237
g1875
sg245
g1893
sg1300
g1911
sg561
g2603
sg289
g1969
sg2587
g1988
sg441
g2272
sg305
g2007
sg1311
g1643
sg321
g2049
sg2735
g2067
sg333
g2092
sg361
g2122
sg365
g2133
sg369
g2149
sg1434
(dp3577
g1224
F0.013999999999999999
ssg397
g2194
sg401
g2207
sg437
g2255
sg1837
g2016
sg677
g2892
sg1664
g2334
sg585
g2641
sg1263
g2376
sS'amazon.com'
p3578
g2400
sg649
g2858
sg1288
g2477
sg2771
g2497
sg1678
g2516
sg525
g2529
sg529
g2546
sg501
g2446
sg2064
g3561
sg1552
g2627
sg589
g2658
sg2098
g2685
sg601
g2701
sg605
g2717
sg609
g2731
sg1237
g2747
sg617
g2766
sg621
g2794
sg629
g2810
sg381
g2171
sg669
g2876
sg1277
g2432
sg681
g2899
sg2396
g2941
sg557
g2591
sg705
g2975
sS'twitter.com'
p3579
g3006
sg733
g3048
sg781
g3164
sg1989
g3075
sg753
g3104
sg925
g3372
sS'yahoo.com'
p3580
g3129
sg1290
g3508
sg701
g2961
sg1471
g3174
sg1185
(dp3581
g1224
F0.021
ssg1469
g3055
sg817
g3194
sg825
g3208
sg845
g3236
sg1255
g3264
sg877
g3282
sg1966
g3294
sg1474
(dp3582
g1224
F0.017
ssg893
g3317
sg1802
g3344
sg921
g3361
sg937
g3397
sg1685
g2928
sg1274
g3424
sg1597
g3466
sg901
g3334
sg1460
g3487
sg1017
g3519
sg1033
g3548
sg1354
(dp3583
g1224
F0.07400000000000001
ssg1283
(dp3584
g1224
F0.045
ssg1516
g1935
sg1483
(dp3585
g1224
F0.033
ssg1296
(dp3586
g1224
F0.069
ssg1157
(dp3587
g1224
F0.023
ssg1165
(dp3588
g1224
F0.01
ssg1306
(dp3589
g1224
F0.038
ssg1304
(dp3590
g1224
F0.0795
ssg2216
(dp3591
g1224
F0.017
ssg1213
(dp3592
g1224
F0.073
sssg1069
(dp3593
g177
g1731
ssg1073
(dp3594
g473
g2346
sg1607
g1780
sg549
g2574
ssg1077
(dp3595
g1053
g3570
ssg1081
(dp3596
g1453
g1518
sS'bing.com'
p3597
g3520
sS'youtube.com'
p3598
g3425
sS'google.com'
p3599
(dp3600
g1224
F0.02
ssS'web.de'
p3601
g1936
sg1226
g1355
sg405
g2210
sS'facebook.com'
p3602
g3583
sS'google.de'
p3603
g3056
sS'amazon.de'
p3604
g1473
sg1802
g3346
ssg1085
(dp3605
g1453
g1508
sg945
g3411
sS'bing.com'
p3606
g3523
sS'youtube.com'
p3607
g3428
sS'ebay.com'
p3608
g2748
sS'web.de'
p3609
g1932
sg1471
g3166
sg401
g2198
sg289
g1970
sg1469
g3061
sg1552
g2617
sS'facebook.com'
p3610
g3585
sg1644
g1484
sS'google.com'
p3611
(dp3612
g1224
F0.021
sssg1089
(dp3613
g165
g1702
ssg1093
(dp3614
g1393
g2836
ssg1097
(dp3615
g757
g3107
sg1277
g2422
sS'sina.com.cn'
p3616
g3401
sg1364
g1530
sg1366
g2907
sS'google.com'
p3617
(dp3618
g1224
F0.027000000000000003
ssg1165
(dp3619
g1224
F0.133
ssg477
g2355
sg281
g1945
sS'360.cn'
p3620
g1369
sg1376
g3300
sg545
g2553
sg1386
g2666
sg841
g3216
sg221
g1828
sg77
g1443
sg1361
g3531
sg1370
g3439
sg1380
g2453
sS'hao123.com'
p3621
g2019
ssg1101
(dp3622
g1607
g1771
ssg1105
(dp3623
g2320
g1234
sS'wikipedia.org'
p3624
g1284
sg1274
g3427
sg681
g2894
sg1666
g1568
sg1668
g3004
sg1783
g1663
sg733
g3039
sS'facebook.com'
p3625
g3584
sg1209
(dp3626
g1224
F0.037000000000000005
ssg701
g2952
sg1664
g2322
sg193
g1754
sg2332
g1789
sg1246
g2403
sg229
g1844
sg245
g1882
sg1656
g2520
sg529
g2535
sg1304
(dp3627
g1224
F0.065
ssg1306
(dp3628
g1224
F0.008
ssS'google.co.uk'
p3629
g3554
sg1213
(dp3630
g1224
F0.023
ssg921
g3353
ssg1109
(dp3631
g185
g1738
ssg1113
(dp3632
g41
g1321
sg61
g1400
ssg1117
(dp3633
g1460
g3485
sg1161
(dp3634
g1224
F0.026000000000000002
ssS'bing.com'
p3635
g3516
sS'google.com'
p3636
(dp3637
g1224
F0.017
ssS'telekom-dienste.de'
p3638
g1939
sS'facebook.com'
p3639
g3582
sS't-online.de'
p3640
g1511
sS'google.de'
p3641
g3064
sS'amazon.de'
p3642
g1475
sg401
g2202
ssg1121
(dp3643
g1376
g3305
ssg1125
(dp3644
g169
g1713
ssg1129
(dp3645
g1185
(dp3646
g1224
F0.015
sssg1133
(dp3647
S'yahoo.com'
p3648
g3127
sg845
g3237
sg1653
g1272
sS'wikipedia.org'
p3649
g1297
sS'youtube.com'
p3650
g3429
sS'google.com'
p3651
(dp3652
g1224
F0.04
ssS'live.com'
p3653
g2769
sg481
g2379
sS'twitter.com'
p3654
g3013
sg69
g1427
sS'facebook.com'
p3655
g3586
sg237
g1876
ssg1137
(dp3656
g925
g3364
sg1161
(dp3657
g1224
F0.038
ssg1685
g2921
sg73
g1435
sS'youtube.com'
p3658
g3415
sS'google.com'
p3659
(dp3660
g1224
F0.024
ssg153
g1683
sg133
g1613
sg645
g2838
sg977
g3471
sS'facebook.com'
p3661
g3577
sg885
g3297
sg93
g1503
ssg1141
(dp3662
g437
g2241
ssg1145
(dp3663
g1033
g3545
ssg1149
(dp3664
g397
g2182
sg365
g2125
ssg1153
(dp3665
g1650
g3375
sg1290
g3510
sg2266
g2979
sg2216
(dp3666
g1224
F0.012
ssg1915
g2817
sg1053
g3568
sg441
g2277
sg749
g3081
ssg1157
(dp3667
S'yahoo.com'
p3668
g3126
sS'bing.com'
p3669
g3518
sg2320
g1232
sS'youtube.com'
p3670
g3430
sS'google.com'
p3671
(dp3672
g1224
F0.305
ssS'live.com'
p3673
g2768
sg1185
(dp3674
g1224
F0.025
ssg1244
g1810
sS'amazon.com'
p3675
g2406
sS'facebook.com'
p3676
g3587
sS'ebay.com'
p3677
g2750
ssg1161
(dp3678
S'msn.com'
p3679
g2676
sS't-online.de'
p3680
g1506
sg249
g1895
sg1189
(dp3681
g1224
F0.012
ssg1434
g3657
sS'youtube.com'
p3682
g3413
sg337
g2096
sS'live.com'
p3683
g2772
sg1474
g3634
sS'facebook.com'
p3684
g3574
sS'google.de'
p3685
g3050
ssg1165
(dp3686
g1277
g2419
sS'sina.com.cn'
p3687
g3404
sS'baidu.com'
p3688
g3619
sS'google.com'
p3689
(dp3690
g1224
F0.071
ssS'taobao.com'
p3691
g2356
sS'360.cn'
p3692
g1372
sS'qq.com'
p3693
g3303
sS'amazon.com'
p3694
g2408
sS'facebook.com'
p3695
g3588
sS'hao123.com'
p3696
g2020
ssg1169
(dp3697
S'yahoo.com'
p3698
g3133
sS'live.com'
p3699
g2767
sS'reddit.com'
p3700
g3628
sS'wikipedia.org'
p3701
g1307
sS'youtube.com'
p3702
g3431
sS'google.com'
p3703
(dp3704
g1224
F0.048
ssg169
g1706
sg877
g3272
sg1185
(dp3705
g1224
F0.285
ssS'twitter.com'
p3706
g3011
sg901
g3325
sg369
g2145
sS'facebook.com'
p3707
g3589
sg653
g2862
ssg1173
(dp3708
g169
g1717
ssg1177
(dp3709
g2320
g1252
sg1653
g1260
sS'wikipedia.org'
p3710
g1305
sg41
g1326
sg1226
g1346
sg61
g1406
sg69
g1423
sg77
g1445
sg1644
g1465
sg1453
g1515
sg105
g1549
sg1666
g1572
sg1368
g3618
sg125
g1592
sg133
g1617
sg1783
g1661
sg165
g1696
sg169
g1710
sg1209
(dp3711
g1224
F0.11
ssg433
g2233
sg1851
g1758
sg2332
g1793
sg1244
g1814
sg229
g1849
sg237
g1869
sg245
g1886
sg1300
g1904
sg561
g2600
sg2587
g1984
sg441
g2279
sg305
g2001
sg1311
g1634
sg321
g2041
sg2735
g2069
sg333
g2085
sg361
g2116
sg365
g2129
sg369
g2144
sg1434
g3660
sg1474
g3637
sg397
g2189
sg437
g2247
sg1277
g2424
sg1772
g2306
sg501
g2441
sg1664
g2326
sg477
g2362
sg1263
g2372
sg489
g2410
sg649
g2853
sg1288
g2471
sg2771
g2499
sg1678
g2507
sg1656
g2524
sg529
g2540
sg549
g2568
sg2064
g3557
sg1552
g2622
sg585
g2638
sg589
g2653
sg2098
g2681
sg601
g2695
sg605
g2713
sg609
g2727
sg613
g2751
sg1840
g2775
sg621
g2789
sg629
g2805
sg1915
g2823
sg381
g2163
sg669
g2872
sg677
g2888
sg681
g2896
sg1685
g2926
sg2396
g2943
sg557
g2585
sg705
g2968
sg2266
g2985
sg725
g3017
sg729
g3029
sg733
g3043
sg781
g3159
sg1989
g3073
sg749
g3087
sg753
g3100
sg925
g3368
sS'yahoo.com'
p3712
g3136
sg1290
g3512
sg701
g2956
sg1471
g3172
sg1185
(dp3713
g1224
F0.08199999999999999
ssg1469
g3063
sg817
g3192
sg825
g3204
sg845
g3232
sg849
g3243
sg1255
g3259
sg877
g3276
sg1966
g3291
sg1376
g3302
sg893
g3319
sg1802
g3341
sg921
g3357
sg1650
g3380
sg937
g3391
sg1384
g3403
sS'youtube.com'
p3714
g3432
sg2262
g3446
sg1597
g3461
sg901
g3329
sS'linkedin.com'
p3715
g3478
sg1460
g3484
sg1009
g3494
sg1280
g3525
sg1361
g3533
sg1033
g3544
sg1293
g3590
sg1354
g3600
sS'reddit.com'
p3716
g3627
sg1516
g1927
sg1483
g3612
sg1296
g3652
sg1157
g3672
sg1165
g3690
sg1306
g3704
sg2216
(dp3717
g1224
F0.040999999999999995
ssg1601
(dp3718
g1224
F0.027000000000000003
ssg1213
(dp3719
g1224
F0.14400000000000002
sssg1181
(dp3720
g1009
g3497
sS'nicovideo.jp'
p3721
g3382
sS'fc2.com'
p3722
g3666
sg1290
g3513
sS'youtube.com'
p3723
g3433
sS'google.com'
p3724
g3717
sg2262
g3449
sg2266
g2987
sg1597
g3462
sg125
g1596
sg1915
g2830
sS'twitter.com'
p3725
g3018
sg1053
g3566
sg441
g2280
sg1601
(dp3726
g1224
F0.017
ssg417
g2217
sS'facebook.com'
p3727
g3591
sg749
g3090
ssg1185
(dp3728
S'yahoo.com'
p3729
g3138
sS'bing.com'
p3730
g3522
sg1157
g3674
sS'google.ca'
p3731
g3705
sS'youtube.com'
p3732
g3420
sS'google.com'
p3733
g3713
sS'live.com'
p3734
g2777
sg901
g3331
sS'facebook.com'
p3735
g3581
sg1129
g3646
ssg1189
(dp3736
g1161
g3681
ssg1193
(dp3737
g817
g3195
ssg1197
(dp3738
g1601
(dp3739
g1224
F0.017
ssg1772
g2312
ssg1201
(dp3740
g165
g1699
ssg1205
(dp3741
S'yahoo.co.jp'
p3742
g3514
sg541
g2550
sS'google.com'
p3743
g3718
sg177
g1730
sS'amazon.co.jp'
p3744
g3726
sg1597
g3463
sg125
g1602
sg1197
g3739
sg565
g2610
sS'google.co.jp'
p3745
g2282
sS'youtube.com'
p3746
g3434
ssg1209
(dp3747
S'yahoo.com'
p3748
g3132
sS'bing.com'
p3749
g3521
sS'reddit.com'
p3750
g3626
sS'google.com'
p3751
g3711
sS'huffingtonpost.com'
p3752
g1566
sg629
g2801
sS'twitter.com'
p3753
g3009
sS't.co'
p3754
g1652
sS'facebook.com'
p3755
g3576
sg825
g3202
ssg1213
(dp3756
S'yahoo.com'
p3757
g3143
sS'bing.com'
p3758
g3527
sg2771
g2495
sS'reddit.com'
p3759
g3630
sS'youtube.com'
p3760
g3435
sS'google.com'
p3761
g3719
sS't.co'
p3762
g1671
sg209
g1800
sS'facebook.com'
p3763
g3592
sg1802
g3345
sssS'graph'
p3764
(dp3765
sS'adjlist_dict_factory'
p3766
g1218
sS'adj'
p3767
g1221
sb.